
temp.elf:     file format elf32-littlearm

Program Header:
    LOAD off    0x00001000 vaddr 0x08000000 paddr 0x08000000 align 2**12
         filesz 0x000014f8 memsz 0x000014f8 flags rwx
    LOAD off    0x00003000 vaddr 0x20000000 paddr 0x080014f8 align 2**12
         filesz 0x00000068 memsz 0x0000009c flags rw-
    LOAD off    0x0000009c vaddr 0x2000009c paddr 0x08001560 align 2**12
         filesz 0x00000000 memsz 0x00000604 flags rw-
private flags = 0x5000200: [Version5 EABI] [soft-float ABI]

Sections:
Idx Name          Size      VMA       LMA       File off  Algn
  0 .apm32_isr_vector 000000fc  08000000  08000000  00001000  2**0
                  CONTENTS, ALLOC, LOAD, READONLY, DATA
  1 .text         00001358  080000fc  080000fc  000010fc  2**2
                  CONTENTS, ALLOC, LOAD, READONLY, CODE
  2 .rodata       0000009c  08001454  08001454  00002454  2**2
                  CONTENTS, ALLOC, LOAD, READONLY, DATA
  3 .init_array   00000004  080014f0  080014f0  000024f0  2**2
                  CONTENTS, ALLOC, LOAD, DATA
  4 .fini_array   00000004  080014f4  080014f4  000024f4  2**2
                  CONTENTS, ALLOC, LOAD, DATA
  5 .data         00000068  20000000  080014f8  00003000  2**2
                  CONTENTS, ALLOC, LOAD, DATA
  6 .bss          00000034  20000068  08001560  00003068  2**2
                  ALLOC
  7 ._user_heap_stack 00000604  2000009c  08001560  0000309c  2**0
                  ALLOC
  8 .ARM.attributes 00000029  00000000  00000000  00003068  2**0
                  CONTENTS, READONLY
  9 .comment      00000026  00000000  00000000  00003091  2**0
                  CONTENTS, READONLY
 10 .debug_info   0001669b  00000000  00000000  000030b7  2**0
                  CONTENTS, READONLY, DEBUGGING, OCTETS
 11 .debug_abbrev 00004236  00000000  00000000  00019752  2**0
                  CONTENTS, READONLY, DEBUGGING, OCTETS
 12 .debug_loc    00001633  00000000  00000000  0001d988  2**0
                  CONTENTS, READONLY, DEBUGGING, OCTETS
 13 .debug_aranges 00000878  00000000  00000000  0001efc0  2**3
                  CONTENTS, READONLY, DEBUGGING, OCTETS
 14 .debug_ranges 00000478  00000000  00000000  0001f838  2**3
                  CONTENTS, READONLY, DEBUGGING, OCTETS
 15 .debug_line   00005f40  00000000  00000000  0001fcb0  2**0
                  CONTENTS, READONLY, DEBUGGING, OCTETS
 16 .debug_str    00004926  00000000  00000000  00025bf0  2**0
                  CONTENTS, READONLY, DEBUGGING, OCTETS
 17 .debug_frame  000010b8  00000000  00000000  0002a518  2**2
                  CONTENTS, READONLY, DEBUGGING, OCTETS
 18 .debug_loclists 000016c2  00000000  00000000  0002b5d0  2**0
                  CONTENTS, READONLY, DEBUGGING, OCTETS
 19 .debug_rnglists 00000179  00000000  00000000  0002cc92  2**0
                  CONTENTS, READONLY, DEBUGGING, OCTETS
 20 .stab         00000084  00000000  00000000  0002ce0c  2**2
                  CONTENTS, READONLY, DEBUGGING
 21 .stabstr      00000117  00000000  00000000  0002ce90  2**0
                  CONTENTS, READONLY, DEBUGGING

Disassembly of section .apm32_isr_vector:

08000000 <g_apm32_Vectors>:
 8000000:	20002800 	andcs	r2, r0, r0, lsl #16
 8000004:	08001395 	stmdaeq	r0, {r0, r2, r4, r7, r8, r9, ip}
 8000008:	080013dd 	stmdaeq	r0, {r0, r2, r3, r4, r6, r7, r8, r9, ip}
 800000c:	080013dd 	stmdaeq	r0, {r0, r2, r3, r4, r6, r7, r8, r9, ip}
 8000010:	080013dd 	stmdaeq	r0, {r0, r2, r3, r4, r6, r7, r8, r9, ip}
 8000014:	080013dd 	stmdaeq	r0, {r0, r2, r3, r4, r6, r7, r8, r9, ip}
 8000018:	080013dd 	stmdaeq	r0, {r0, r2, r3, r4, r6, r7, r8, r9, ip}
	...
 800002c:	080013dd 	stmdaeq	r0, {r0, r2, r3, r4, r6, r7, r8, r9, ip}
 8000030:	080013dd 	stmdaeq	r0, {r0, r2, r3, r4, r6, r7, r8, r9, ip}
 8000034:	00000000 	andeq	r0, r0, r0
 8000038:	080013dd 	stmdaeq	r0, {r0, r2, r3, r4, r6, r7, r8, r9, ip}
 800003c:	080013dd 	stmdaeq	r0, {r0, r2, r3, r4, r6, r7, r8, r9, ip}
 8000040:	080013dd 	stmdaeq	r0, {r0, r2, r3, r4, r6, r7, r8, r9, ip}
 8000044:	080013dd 	stmdaeq	r0, {r0, r2, r3, r4, r6, r7, r8, r9, ip}
 8000048:	080013dd 	stmdaeq	r0, {r0, r2, r3, r4, r6, r7, r8, r9, ip}
 800004c:	080013dd 	stmdaeq	r0, {r0, r2, r3, r4, r6, r7, r8, r9, ip}
 8000050:	080013dd 	stmdaeq	r0, {r0, r2, r3, r4, r6, r7, r8, r9, ip}
 8000054:	080013dd 	stmdaeq	r0, {r0, r2, r3, r4, r6, r7, r8, r9, ip}
 8000058:	080013dd 	stmdaeq	r0, {r0, r2, r3, r4, r6, r7, r8, r9, ip}
 800005c:	080013dd 	stmdaeq	r0, {r0, r2, r3, r4, r6, r7, r8, r9, ip}
 8000060:	080013dd 	stmdaeq	r0, {r0, r2, r3, r4, r6, r7, r8, r9, ip}
 8000064:	080013dd 	stmdaeq	r0, {r0, r2, r3, r4, r6, r7, r8, r9, ip}
 8000068:	080013dd 	stmdaeq	r0, {r0, r2, r3, r4, r6, r7, r8, r9, ip}
 800006c:	080013dd 	stmdaeq	r0, {r0, r2, r3, r4, r6, r7, r8, r9, ip}
 8000070:	080013dd 	stmdaeq	r0, {r0, r2, r3, r4, r6, r7, r8, r9, ip}
 8000074:	080013dd 	stmdaeq	r0, {r0, r2, r3, r4, r6, r7, r8, r9, ip}
 8000078:	080013dd 	stmdaeq	r0, {r0, r2, r3, r4, r6, r7, r8, r9, ip}
 800007c:	080013dd 	stmdaeq	r0, {r0, r2, r3, r4, r6, r7, r8, r9, ip}
 8000080:	080013dd 	stmdaeq	r0, {r0, r2, r3, r4, r6, r7, r8, r9, ip}
 8000084:	080013dd 	stmdaeq	r0, {r0, r2, r3, r4, r6, r7, r8, r9, ip}
 8000088:	080013dd 	stmdaeq	r0, {r0, r2, r3, r4, r6, r7, r8, r9, ip}
 800008c:	080013dd 	stmdaeq	r0, {r0, r2, r3, r4, r6, r7, r8, r9, ip}
 8000090:	080013dd 	stmdaeq	r0, {r0, r2, r3, r4, r6, r7, r8, r9, ip}
 8000094:	080013dd 	stmdaeq	r0, {r0, r2, r3, r4, r6, r7, r8, r9, ip}
 8000098:	080013dd 	stmdaeq	r0, {r0, r2, r3, r4, r6, r7, r8, r9, ip}
 800009c:	080013dd 	stmdaeq	r0, {r0, r2, r3, r4, r6, r7, r8, r9, ip}
 80000a0:	080013dd 	stmdaeq	r0, {r0, r2, r3, r4, r6, r7, r8, r9, ip}
 80000a4:	080013dd 	stmdaeq	r0, {r0, r2, r3, r4, r6, r7, r8, r9, ip}
 80000a8:	080013dd 	stmdaeq	r0, {r0, r2, r3, r4, r6, r7, r8, r9, ip}
 80000ac:	080013dd 	stmdaeq	r0, {r0, r2, r3, r4, r6, r7, r8, r9, ip}
 80000b0:	080013dd 	stmdaeq	r0, {r0, r2, r3, r4, r6, r7, r8, r9, ip}
 80000b4:	080013dd 	stmdaeq	r0, {r0, r2, r3, r4, r6, r7, r8, r9, ip}
 80000b8:	080013dd 	stmdaeq	r0, {r0, r2, r3, r4, r6, r7, r8, r9, ip}
 80000bc:	080013dd 	stmdaeq	r0, {r0, r2, r3, r4, r6, r7, r8, r9, ip}
 80000c0:	080013dd 	stmdaeq	r0, {r0, r2, r3, r4, r6, r7, r8, r9, ip}
 80000c4:	080013dd 	stmdaeq	r0, {r0, r2, r3, r4, r6, r7, r8, r9, ip}
 80000c8:	080013dd 	stmdaeq	r0, {r0, r2, r3, r4, r6, r7, r8, r9, ip}
 80000cc:	080013dd 	stmdaeq	r0, {r0, r2, r3, r4, r6, r7, r8, r9, ip}
 80000d0:	080013dd 	stmdaeq	r0, {r0, r2, r3, r4, r6, r7, r8, r9, ip}
 80000d4:	080013dd 	stmdaeq	r0, {r0, r2, r3, r4, r6, r7, r8, r9, ip}
 80000d8:	080013dd 	stmdaeq	r0, {r0, r2, r3, r4, r6, r7, r8, r9, ip}
 80000dc:	080013dd 	stmdaeq	r0, {r0, r2, r3, r4, r6, r7, r8, r9, ip}
 80000e0:	080013dd 	stmdaeq	r0, {r0, r2, r3, r4, r6, r7, r8, r9, ip}
 80000e4:	080013dd 	stmdaeq	r0, {r0, r2, r3, r4, r6, r7, r8, r9, ip}
 80000e8:	080013dd 	stmdaeq	r0, {r0, r2, r3, r4, r6, r7, r8, r9, ip}
 80000ec:	080013dd 	stmdaeq	r0, {r0, r2, r3, r4, r6, r7, r8, r9, ip}
 80000f0:	080013dd 	stmdaeq	r0, {r0, r2, r3, r4, r6, r7, r8, r9, ip}
 80000f4:	080013dd 	stmdaeq	r0, {r0, r2, r3, r4, r6, r7, r8, r9, ip}
 80000f8:	080013dd 	stmdaeq	r0, {r0, r2, r3, r4, r6, r7, r8, r9, ip}

Disassembly of section .text:

080000fc <deregister_tm_clones>:
 80000fc:	4803      	ldr	r0, [pc, #12]	@ (800010c <deregister_tm_clones+0x10>)
 80000fe:	4b04      	ldr	r3, [pc, #16]	@ (8000110 <deregister_tm_clones+0x14>)
 8000100:	4283      	cmp	r3, r0
 8000102:	d002      	beq.n	800010a <deregister_tm_clones+0xe>
 8000104:	4b03      	ldr	r3, [pc, #12]	@ (8000114 <deregister_tm_clones+0x18>)
 8000106:	b103      	cbz	r3, 800010a <deregister_tm_clones+0xe>
 8000108:	4718      	bx	r3
 800010a:	4770      	bx	lr
 800010c:	20000068 	andcs	r0, r0, r8, rrx
 8000110:	20000068 	andcs	r0, r0, r8, rrx
 8000114:	00000000 	andeq	r0, r0, r0

08000118 <register_tm_clones>:
 8000118:	4805      	ldr	r0, [pc, #20]	@ (8000130 <register_tm_clones+0x18>)
 800011a:	4b06      	ldr	r3, [pc, #24]	@ (8000134 <register_tm_clones+0x1c>)
 800011c:	1a1b      	subs	r3, r3, r0
 800011e:	0fd9      	lsrs	r1, r3, #31
 8000120:	eb01 01a3 	add.w	r1, r1, r3, asr #2
 8000124:	1049      	asrs	r1, r1, #1
 8000126:	d002      	beq.n	800012e <register_tm_clones+0x16>
 8000128:	4b03      	ldr	r3, [pc, #12]	@ (8000138 <register_tm_clones+0x20>)
 800012a:	b103      	cbz	r3, 800012e <register_tm_clones+0x16>
 800012c:	4718      	bx	r3
 800012e:	4770      	bx	lr
 8000130:	20000068 	andcs	r0, r0, r8, rrx
 8000134:	20000068 	andcs	r0, r0, r8, rrx
 8000138:	00000000 	andeq	r0, r0, r0

0800013c <__do_global_dtors_aux>:
 800013c:	b510      	push	{r4, lr}
 800013e:	4c06      	ldr	r4, [pc, #24]	@ (8000158 <__do_global_dtors_aux+0x1c>)
 8000140:	7823      	ldrb	r3, [r4, #0]
 8000142:	b943      	cbnz	r3, 8000156 <__do_global_dtors_aux+0x1a>
 8000144:	f7ff ffda 	bl	80000fc <deregister_tm_clones>
 8000148:	4b04      	ldr	r3, [pc, #16]	@ (800015c <__do_global_dtors_aux+0x20>)
 800014a:	b113      	cbz	r3, 8000152 <__do_global_dtors_aux+0x16>
 800014c:	4804      	ldr	r0, [pc, #16]	@ (8000160 <__do_global_dtors_aux+0x24>)
 800014e:	f3af 8000 	nop.w
 8000152:	2301      	movs	r3, #1
 8000154:	7023      	strb	r3, [r4, #0]
 8000156:	bd10      	pop	{r4, pc}
 8000158:	20000068 	andcs	r0, r0, r8, rrx
 800015c:	00000000 	andeq	r0, r0, r0
 8000160:	0800143c 	stmdaeq	r0, {r2, r3, r4, r5, sl, ip}

08000164 <frame_dummy>:
 8000164:	b508      	push	{r3, lr}
 8000166:	4b04      	ldr	r3, [pc, #16]	@ (8000178 <frame_dummy+0x14>)
 8000168:	b11b      	cbz	r3, 8000172 <frame_dummy+0xe>
 800016a:	4904      	ldr	r1, [pc, #16]	@ (800017c <frame_dummy+0x18>)
 800016c:	4804      	ldr	r0, [pc, #16]	@ (8000180 <frame_dummy+0x1c>)
 800016e:	f3af 8000 	nop.w
 8000172:	e8bd 4008 	ldmia.w	sp!, {r3, lr}
 8000176:	e7cf      	b.n	8000118 <register_tm_clones>
 8000178:	00000000 	andeq	r0, r0, r0
 800017c:	2000006c 	andcs	r0, r0, ip, rrx
 8000180:	0800143c 	stmdaeq	r0, {r2, r3, r4, r5, sl, ip}

08000184 <__libc_init_array>:
 8000184:	b570      	push	{r4, r5, r6, lr}
 8000186:	4b0f      	ldr	r3, [pc, #60]	@ (80001c4 <__libc_init_array+0x40>)
 8000188:	4d0f      	ldr	r5, [pc, #60]	@ (80001c8 <__libc_init_array+0x44>)
 800018a:	42ab      	cmp	r3, r5
 800018c:	eba3 0605 	sub.w	r6, r3, r5
 8000190:	d007      	beq.n	80001a2 <__libc_init_array+0x1e>
 8000192:	2400      	movs	r4, #0
 8000194:	10b6      	asrs	r6, r6, #2
 8000196:	f855 3b04 	ldr.w	r3, [r5], #4
 800019a:	3401      	adds	r4, #1
 800019c:	4798      	blx	r3
 800019e:	42a6      	cmp	r6, r4
 80001a0:	d8f9      	bhi.n	8000196 <__libc_init_array+0x12>
 80001a2:	f001 f94b 	bl	800143c <_init>
 80001a6:	4d09      	ldr	r5, [pc, #36]	@ (80001cc <__libc_init_array+0x48>)
 80001a8:	4b09      	ldr	r3, [pc, #36]	@ (80001d0 <__libc_init_array+0x4c>)
 80001aa:	1b5e      	subs	r6, r3, r5
 80001ac:	42ab      	cmp	r3, r5
 80001ae:	ea4f 06a6 	mov.w	r6, r6, asr #2
 80001b2:	d006      	beq.n	80001c2 <__libc_init_array+0x3e>
 80001b4:	2400      	movs	r4, #0
 80001b6:	f855 3b04 	ldr.w	r3, [r5], #4
 80001ba:	3401      	adds	r4, #1
 80001bc:	4798      	blx	r3
 80001be:	42a6      	cmp	r6, r4
 80001c0:	d8f9      	bhi.n	80001b6 <__libc_init_array+0x32>
 80001c2:	bd70      	pop	{r4, r5, r6, pc}
 80001c4:	080014f0 	stmdaeq	r0, {r4, r5, r6, r7, sl, ip}
 80001c8:	080014f0 	stmdaeq	r0, {r4, r5, r6, r7, sl, ip}
 80001cc:	080014f0 	stmdaeq	r0, {r4, r5, r6, r7, sl, ip}
 80001d0:	080014f4 	stmdaeq	r0, {r2, r4, r5, r6, r7, sl, ip}

080001d4 <memset>:
 80001d4:	b570      	push	{r4, r5, r6, lr}
 80001d6:	0786      	lsls	r6, r0, #30
 80001d8:	d047      	beq.n	800026a <memset+0x96>
 80001da:	1e54      	subs	r4, r2, #1
 80001dc:	2a00      	cmp	r2, #0
 80001de:	d03e      	beq.n	800025e <memset+0x8a>
 80001e0:	4603      	mov	r3, r0
 80001e2:	b2ca      	uxtb	r2, r1
 80001e4:	e001      	b.n	80001ea <memset+0x16>
 80001e6:	3c01      	subs	r4, #1
 80001e8:	d339      	bcc.n	800025e <memset+0x8a>
 80001ea:	f803 2b01 	strb.w	r2, [r3], #1
 80001ee:	079d      	lsls	r5, r3, #30
 80001f0:	d1f9      	bne.n	80001e6 <memset+0x12>
 80001f2:	2c03      	cmp	r4, #3
 80001f4:	d92c      	bls.n	8000250 <memset+0x7c>
 80001f6:	b2cd      	uxtb	r5, r1
 80001f8:	eb05 2505 	add.w	r5, r5, r5, lsl #8
 80001fc:	2c0f      	cmp	r4, #15
 80001fe:	461a      	mov	r2, r3
 8000200:	eb05 4505 	add.w	r5, r5, r5, lsl #16
 8000204:	d934      	bls.n	8000270 <memset+0x9c>
 8000206:	f1a4 0c10 	sub.w	ip, r4, #16
 800020a:	f02c 060f 	bic.w	r6, ip, #15
 800020e:	f103 0e10 	add.w	lr, r3, #16
 8000212:	44b6      	add	lr, r6
 8000214:	ea4f 1c1c 	mov.w	ip, ip, lsr #4
 8000218:	6015      	str	r5, [r2, #0]
 800021a:	6055      	str	r5, [r2, #4]
 800021c:	6095      	str	r5, [r2, #8]
 800021e:	60d5      	str	r5, [r2, #12]
 8000220:	3210      	adds	r2, #16
 8000222:	4572      	cmp	r2, lr
 8000224:	d1f8      	bne.n	8000218 <memset+0x44>
 8000226:	f10c 0201 	add.w	r2, ip, #1
 800022a:	f014 0f0c 	tst.w	r4, #12
 800022e:	eb03 1202 	add.w	r2, r3, r2, lsl #4
 8000232:	f004 0c0f 	and.w	ip, r4, #15
 8000236:	d013      	beq.n	8000260 <memset+0x8c>
 8000238:	f1ac 0304 	sub.w	r3, ip, #4
 800023c:	f023 0303 	bic.w	r3, r3, #3
 8000240:	3304      	adds	r3, #4
 8000242:	4413      	add	r3, r2
 8000244:	f842 5b04 	str.w	r5, [r2], #4
 8000248:	429a      	cmp	r2, r3
 800024a:	d1fb      	bne.n	8000244 <memset+0x70>
 800024c:	f00c 0403 	and.w	r4, ip, #3
 8000250:	b12c      	cbz	r4, 800025e <memset+0x8a>
 8000252:	b2c9      	uxtb	r1, r1
 8000254:	441c      	add	r4, r3
 8000256:	f803 1b01 	strb.w	r1, [r3], #1
 800025a:	429c      	cmp	r4, r3
 800025c:	d1fb      	bne.n	8000256 <memset+0x82>
 800025e:	bd70      	pop	{r4, r5, r6, pc}
 8000260:	4664      	mov	r4, ip
 8000262:	4613      	mov	r3, r2
 8000264:	2c00      	cmp	r4, #0
 8000266:	d1f4      	bne.n	8000252 <memset+0x7e>
 8000268:	e7f9      	b.n	800025e <memset+0x8a>
 800026a:	4603      	mov	r3, r0
 800026c:	4614      	mov	r4, r2
 800026e:	e7c0      	b.n	80001f2 <memset+0x1e>
 8000270:	46a4      	mov	ip, r4
 8000272:	e7e1      	b.n	8000238 <memset+0x64>

08000274 <_puts_r>:
 8000274:	b570      	push	{r4, r5, r6, lr}
 8000276:	4606      	mov	r6, r0
 8000278:	2800      	cmp	r0, #0
 800027a:	d056      	beq.n	800032a <_puts_r+0xb6>
 800027c:	6983      	ldr	r3, [r0, #24]
 800027e:	460d      	mov	r5, r1
 8000280:	b313      	cbz	r3, 80002c8 <_puts_r+0x54>
 8000282:	6884      	ldr	r4, [r0, #8]
 8000284:	4b2b      	ldr	r3, [pc, #172]	@ (8000334 <_puts_r+0xc0>)
 8000286:	429c      	cmp	r4, r3
 8000288:	d02a      	beq.n	80002e0 <_puts_r+0x6c>
 800028a:	4b2b      	ldr	r3, [pc, #172]	@ (8000338 <_puts_r+0xc4>)
 800028c:	429c      	cmp	r4, r3
 800028e:	d04e      	beq.n	800032e <_puts_r+0xba>
 8000290:	4b2a      	ldr	r3, [pc, #168]	@ (800033c <_puts_r+0xc8>)
 8000292:	429c      	cmp	r4, r3
 8000294:	bf08      	it	eq
 8000296:	68f4      	ldreq	r4, [r6, #12]
 8000298:	89a3      	ldrh	r3, [r4, #12]
 800029a:	071b      	lsls	r3, r3, #28
 800029c:	d524      	bpl.n	80002e8 <_puts_r+0x74>
 800029e:	6923      	ldr	r3, [r4, #16]
 80002a0:	b313      	cbz	r3, 80002e8 <_puts_r+0x74>
 80002a2:	3d01      	subs	r5, #1
 80002a4:	68a3      	ldr	r3, [r4, #8]
 80002a6:	f815 1f01 	ldrb.w	r1, [r5, #1]!
 80002aa:	3b01      	subs	r3, #1
 80002ac:	60a3      	str	r3, [r4, #8]
 80002ae:	b359      	cbz	r1, 8000308 <_puts_r+0x94>
 80002b0:	2b00      	cmp	r3, #0
 80002b2:	da04      	bge.n	80002be <_puts_r+0x4a>
 80002b4:	69a2      	ldr	r2, [r4, #24]
 80002b6:	4293      	cmp	r3, r2
 80002b8:	db1d      	blt.n	80002f6 <_puts_r+0x82>
 80002ba:	290a      	cmp	r1, #10
 80002bc:	d01b      	beq.n	80002f6 <_puts_r+0x82>
 80002be:	6823      	ldr	r3, [r4, #0]
 80002c0:	1c5a      	adds	r2, r3, #1
 80002c2:	6022      	str	r2, [r4, #0]
 80002c4:	7019      	strb	r1, [r3, #0]
 80002c6:	e7ed      	b.n	80002a4 <_puts_r+0x30>
 80002c8:	f000 fafe 	bl	80008c8 <__sinit>
 80002cc:	69b3      	ldr	r3, [r6, #24]
 80002ce:	68b4      	ldr	r4, [r6, #8]
 80002d0:	2b00      	cmp	r3, #0
 80002d2:	d1d7      	bne.n	8000284 <_puts_r+0x10>
 80002d4:	4630      	mov	r0, r6
 80002d6:	f000 faf7 	bl	80008c8 <__sinit>
 80002da:	4b16      	ldr	r3, [pc, #88]	@ (8000334 <_puts_r+0xc0>)
 80002dc:	429c      	cmp	r4, r3
 80002de:	d1d4      	bne.n	800028a <_puts_r+0x16>
 80002e0:	6874      	ldr	r4, [r6, #4]
 80002e2:	89a3      	ldrh	r3, [r4, #12]
 80002e4:	071b      	lsls	r3, r3, #28
 80002e6:	d4da      	bmi.n	800029e <_puts_r+0x2a>
 80002e8:	4621      	mov	r1, r4
 80002ea:	4630      	mov	r0, r6
 80002ec:	f000 f892 	bl	8000414 <__swsetup_r>
 80002f0:	2800      	cmp	r0, #0
 80002f2:	d0d6      	beq.n	80002a2 <_puts_r+0x2e>
 80002f4:	e005      	b.n	8000302 <_puts_r+0x8e>
 80002f6:	4622      	mov	r2, r4
 80002f8:	4630      	mov	r0, r6
 80002fa:	f000 f829 	bl	8000350 <__swbuf_r>
 80002fe:	3001      	adds	r0, #1
 8000300:	d1d0      	bne.n	80002a4 <_puts_r+0x30>
 8000302:	f04f 30ff 	mov.w	r0, #4294967295	@ 0xffffffff
 8000306:	bd70      	pop	{r4, r5, r6, pc}
 8000308:	2b00      	cmp	r3, #0
 800030a:	da08      	bge.n	800031e <_puts_r+0xaa>
 800030c:	4622      	mov	r2, r4
 800030e:	210a      	movs	r1, #10
 8000310:	4630      	mov	r0, r6
 8000312:	f000 f81d 	bl	8000350 <__swbuf_r>
 8000316:	3001      	adds	r0, #1
 8000318:	d0f3      	beq.n	8000302 <_puts_r+0x8e>
 800031a:	200a      	movs	r0, #10
 800031c:	bd70      	pop	{r4, r5, r6, pc}
 800031e:	220a      	movs	r2, #10
 8000320:	6823      	ldr	r3, [r4, #0]
 8000322:	1c59      	adds	r1, r3, #1
 8000324:	6021      	str	r1, [r4, #0]
 8000326:	701a      	strb	r2, [r3, #0]
 8000328:	e7f7      	b.n	800031a <_puts_r+0xa6>
 800032a:	6883      	ldr	r3, [r0, #8]
 800032c:	deff      	udf	#255	@ 0xff
 800032e:	68b4      	ldr	r4, [r6, #8]
 8000330:	e7b2      	b.n	8000298 <_puts_r+0x24>
 8000332:	bf00      	nop
 8000334:	080014b0 	stmdaeq	r0, {r4, r5, r7, sl, ip}
 8000338:	08001490 	stmdaeq	r0, {r4, r7, sl, ip}
 800033c:	08001470 	stmdaeq	r0, {r4, r5, r6, sl, ip}

08000340 <puts>:
 8000340:	4b02      	ldr	r3, [pc, #8]	@ (800034c <puts+0xc>)
 8000342:	4601      	mov	r1, r0
 8000344:	6818      	ldr	r0, [r3, #0]
 8000346:	f7ff bf95 	b.w	8000274 <_puts_r>
 800034a:	bf00      	nop
 800034c:	20000000 	andcs	r0, r0, r0

08000350 <__swbuf_r>:
 8000350:	b5f8      	push	{r3, r4, r5, r6, r7, lr}
 8000352:	4606      	mov	r6, r0
 8000354:	460d      	mov	r5, r1
 8000356:	4614      	mov	r4, r2
 8000358:	b108      	cbz	r0, 800035e <__swbuf_r+0xe>
 800035a:	6983      	ldr	r3, [r0, #24]
 800035c:	b343      	cbz	r3, 80003b0 <__swbuf_r+0x60>
 800035e:	4b25      	ldr	r3, [pc, #148]	@ (80003f4 <__swbuf_r+0xa4>)
 8000360:	429c      	cmp	r4, r3
 8000362:	d02a      	beq.n	80003ba <__swbuf_r+0x6a>
 8000364:	4b24      	ldr	r3, [pc, #144]	@ (80003f8 <__swbuf_r+0xa8>)
 8000366:	429c      	cmp	r4, r3
 8000368:	d029      	beq.n	80003be <__swbuf_r+0x6e>
 800036a:	4b24      	ldr	r3, [pc, #144]	@ (80003fc <__swbuf_r+0xac>)
 800036c:	429c      	cmp	r4, r3
 800036e:	bf08      	it	eq
 8000370:	68f4      	ldreq	r4, [r6, #12]
 8000372:	69a2      	ldr	r2, [r4, #24]
 8000374:	89a3      	ldrh	r3, [r4, #12]
 8000376:	60a2      	str	r2, [r4, #8]
 8000378:	071a      	lsls	r2, r3, #28
 800037a:	d522      	bpl.n	80003c2 <__swbuf_r+0x72>
 800037c:	6923      	ldr	r3, [r4, #16]
 800037e:	b303      	cbz	r3, 80003c2 <__swbuf_r+0x72>
 8000380:	6822      	ldr	r2, [r4, #0]
 8000382:	6961      	ldr	r1, [r4, #20]
 8000384:	1ad3      	subs	r3, r2, r3
 8000386:	b2ed      	uxtb	r5, r5
 8000388:	4299      	cmp	r1, r3
 800038a:	462f      	mov	r7, r5
 800038c:	dd29      	ble.n	80003e2 <__swbuf_r+0x92>
 800038e:	3301      	adds	r3, #1
 8000390:	68a1      	ldr	r1, [r4, #8]
 8000392:	3901      	subs	r1, #1
 8000394:	60a1      	str	r1, [r4, #8]
 8000396:	1c51      	adds	r1, r2, #1
 8000398:	6021      	str	r1, [r4, #0]
 800039a:	7015      	strb	r5, [r2, #0]
 800039c:	6962      	ldr	r2, [r4, #20]
 800039e:	429a      	cmp	r2, r3
 80003a0:	d016      	beq.n	80003d0 <__swbuf_r+0x80>
 80003a2:	89a3      	ldrh	r3, [r4, #12]
 80003a4:	07db      	lsls	r3, r3, #31
 80003a6:	d501      	bpl.n	80003ac <__swbuf_r+0x5c>
 80003a8:	2d0a      	cmp	r5, #10
 80003aa:	d011      	beq.n	80003d0 <__swbuf_r+0x80>
 80003ac:	4638      	mov	r0, r7
 80003ae:	bdf8      	pop	{r3, r4, r5, r6, r7, pc}
 80003b0:	f000 fa8a 	bl	80008c8 <__sinit>
 80003b4:	4b0f      	ldr	r3, [pc, #60]	@ (80003f4 <__swbuf_r+0xa4>)
 80003b6:	429c      	cmp	r4, r3
 80003b8:	d1d4      	bne.n	8000364 <__swbuf_r+0x14>
 80003ba:	6874      	ldr	r4, [r6, #4]
 80003bc:	e7d9      	b.n	8000372 <__swbuf_r+0x22>
 80003be:	68b4      	ldr	r4, [r6, #8]
 80003c0:	e7d7      	b.n	8000372 <__swbuf_r+0x22>
 80003c2:	4621      	mov	r1, r4
 80003c4:	4630      	mov	r0, r6
 80003c6:	f000 f825 	bl	8000414 <__swsetup_r>
 80003ca:	b938      	cbnz	r0, 80003dc <__swbuf_r+0x8c>
 80003cc:	6923      	ldr	r3, [r4, #16]
 80003ce:	e7d7      	b.n	8000380 <__swbuf_r+0x30>
 80003d0:	4621      	mov	r1, r4
 80003d2:	4630      	mov	r0, r6
 80003d4:	f000 f91a 	bl	800060c <_fflush_r>
 80003d8:	2800      	cmp	r0, #0
 80003da:	d0e7      	beq.n	80003ac <__swbuf_r+0x5c>
 80003dc:	f04f 37ff 	mov.w	r7, #4294967295	@ 0xffffffff
 80003e0:	e7e4      	b.n	80003ac <__swbuf_r+0x5c>
 80003e2:	4621      	mov	r1, r4
 80003e4:	4630      	mov	r0, r6
 80003e6:	f000 f911 	bl	800060c <_fflush_r>
 80003ea:	2800      	cmp	r0, #0
 80003ec:	d1f6      	bne.n	80003dc <__swbuf_r+0x8c>
 80003ee:	2301      	movs	r3, #1
 80003f0:	6822      	ldr	r2, [r4, #0]
 80003f2:	e7cd      	b.n	8000390 <__swbuf_r+0x40>
 80003f4:	080014b0 	stmdaeq	r0, {r4, r5, r7, sl, ip}
 80003f8:	08001490 	stmdaeq	r0, {r4, r7, sl, ip}
 80003fc:	08001470 	stmdaeq	r0, {r4, r5, r6, sl, ip}

08000400 <__swbuf>:
 8000400:	4603      	mov	r3, r0
 8000402:	460a      	mov	r2, r1
 8000404:	4902      	ldr	r1, [pc, #8]	@ (8000410 <__swbuf+0x10>)
 8000406:	6808      	ldr	r0, [r1, #0]
 8000408:	4619      	mov	r1, r3
 800040a:	f7ff bfa1 	b.w	8000350 <__swbuf_r>
 800040e:	bf00      	nop
 8000410:	20000000 	andcs	r0, r0, r0

08000414 <__swsetup_r>:
 8000414:	4b38      	ldr	r3, [pc, #224]	@ (80004f8 <__swsetup_r+0xe4>)
 8000416:	b570      	push	{r4, r5, r6, lr}
 8000418:	681d      	ldr	r5, [r3, #0]
 800041a:	4606      	mov	r6, r0
 800041c:	460c      	mov	r4, r1
 800041e:	b10d      	cbz	r5, 8000424 <__swsetup_r+0x10>
 8000420:	69ab      	ldr	r3, [r5, #24]
 8000422:	b1d3      	cbz	r3, 800045a <__swsetup_r+0x46>
 8000424:	4b35      	ldr	r3, [pc, #212]	@ (80004fc <__swsetup_r+0xe8>)
 8000426:	429c      	cmp	r4, r3
 8000428:	d01d      	beq.n	8000466 <__swsetup_r+0x52>
 800042a:	4b35      	ldr	r3, [pc, #212]	@ (8000500 <__swsetup_r+0xec>)
 800042c:	429c      	cmp	r4, r3
 800042e:	d048      	beq.n	80004c2 <__swsetup_r+0xae>
 8000430:	4b34      	ldr	r3, [pc, #208]	@ (8000504 <__swsetup_r+0xf0>)
 8000432:	429c      	cmp	r4, r3
 8000434:	bf08      	it	eq
 8000436:	68ec      	ldreq	r4, [r5, #12]
 8000438:	f9b4 300c 	ldrsh.w	r3, [r4, #12]
 800043c:	0719      	lsls	r1, r3, #28
 800043e:	d517      	bpl.n	8000470 <__swsetup_r+0x5c>
 8000440:	6922      	ldr	r2, [r4, #16]
 8000442:	b1fa      	cbz	r2, 8000484 <__swsetup_r+0x70>
 8000444:	f013 0101 	ands.w	r1, r3, #1
 8000448:	d02b      	beq.n	80004a2 <__swsetup_r+0x8e>
 800044a:	2000      	movs	r0, #0
 800044c:	6961      	ldr	r1, [r4, #20]
 800044e:	60a0      	str	r0, [r4, #8]
 8000450:	4249      	negs	r1, r1
 8000452:	61a1      	str	r1, [r4, #24]
 8000454:	b35a      	cbz	r2, 80004ae <__swsetup_r+0x9a>
 8000456:	2000      	movs	r0, #0
 8000458:	bd70      	pop	{r4, r5, r6, pc}
 800045a:	4628      	mov	r0, r5
 800045c:	f000 fa34 	bl	80008c8 <__sinit>
 8000460:	4b26      	ldr	r3, [pc, #152]	@ (80004fc <__swsetup_r+0xe8>)
 8000462:	429c      	cmp	r4, r3
 8000464:	d1e1      	bne.n	800042a <__swsetup_r+0x16>
 8000466:	686c      	ldr	r4, [r5, #4]
 8000468:	f9b4 300c 	ldrsh.w	r3, [r4, #12]
 800046c:	0719      	lsls	r1, r3, #28
 800046e:	d4e7      	bmi.n	8000440 <__swsetup_r+0x2c>
 8000470:	06da      	lsls	r2, r3, #27
 8000472:	d53c      	bpl.n	80004ee <__swsetup_r+0xda>
 8000474:	075d      	lsls	r5, r3, #29
 8000476:	d426      	bmi.n	80004c6 <__swsetup_r+0xb2>
 8000478:	6922      	ldr	r2, [r4, #16]
 800047a:	f043 0308 	orr.w	r3, r3, #8
 800047e:	81a3      	strh	r3, [r4, #12]
 8000480:	2a00      	cmp	r2, #0
 8000482:	d1df      	bne.n	8000444 <__swsetup_r+0x30>
 8000484:	f403 7120 	and.w	r1, r3, #640	@ 0x280
 8000488:	f5b1 7f00 	cmp.w	r1, #512	@ 0x200
 800048c:	d0da      	beq.n	8000444 <__swsetup_r+0x30>
 800048e:	4621      	mov	r1, r4
 8000490:	4630      	mov	r0, r6
 8000492:	f000 fa7d 	bl	8000990 <__smakebuf_r>
 8000496:	f9b4 300c 	ldrsh.w	r3, [r4, #12]
 800049a:	6922      	ldr	r2, [r4, #16]
 800049c:	f013 0101 	ands.w	r1, r3, #1
 80004a0:	d1d3      	bne.n	800044a <__swsetup_r+0x36>
 80004a2:	0798      	lsls	r0, r3, #30
 80004a4:	bf58      	it	pl
 80004a6:	6961      	ldrpl	r1, [r4, #20]
 80004a8:	60a1      	str	r1, [r4, #8]
 80004aa:	2a00      	cmp	r2, #0
 80004ac:	d1d3      	bne.n	8000456 <__swsetup_r+0x42>
 80004ae:	0619      	lsls	r1, r3, #24
 80004b0:	bf58      	it	pl
 80004b2:	4610      	movpl	r0, r2
 80004b4:	d5d0      	bpl.n	8000458 <__swsetup_r+0x44>
 80004b6:	f043 0340 	orr.w	r3, r3, #64	@ 0x40
 80004ba:	f04f 30ff 	mov.w	r0, #4294967295	@ 0xffffffff
 80004be:	81a3      	strh	r3, [r4, #12]
 80004c0:	bd70      	pop	{r4, r5, r6, pc}
 80004c2:	68ac      	ldr	r4, [r5, #8]
 80004c4:	e7b8      	b.n	8000438 <__swsetup_r+0x24>
 80004c6:	6b61      	ldr	r1, [r4, #52]	@ 0x34
 80004c8:	b151      	cbz	r1, 80004e0 <__swsetup_r+0xcc>
 80004ca:	f104 0244 	add.w	r2, r4, #68	@ 0x44
 80004ce:	4291      	cmp	r1, r2
 80004d0:	d004      	beq.n	80004dc <__swsetup_r+0xc8>
 80004d2:	4630      	mov	r0, r6
 80004d4:	f000 fae4 	bl	8000aa0 <_free_r>
 80004d8:	f9b4 300c 	ldrsh.w	r3, [r4, #12]
 80004dc:	2200      	movs	r2, #0
 80004de:	6362      	str	r2, [r4, #52]	@ 0x34
 80004e0:	2100      	movs	r1, #0
 80004e2:	6922      	ldr	r2, [r4, #16]
 80004e4:	f023 0324 	bic.w	r3, r3, #36	@ 0x24
 80004e8:	e9c4 2100 	strd	r2, r1, [r4]
 80004ec:	e7c5      	b.n	800047a <__swsetup_r+0x66>
 80004ee:	2209      	movs	r2, #9
 80004f0:	f043 0340 	orr.w	r3, r3, #64	@ 0x40
 80004f4:	6032      	str	r2, [r6, #0]
 80004f6:	e7e0      	b.n	80004ba <__swsetup_r+0xa6>
 80004f8:	20000000 	andcs	r0, r0, r0
 80004fc:	080014b0 	stmdaeq	r0, {r4, r5, r7, sl, ip}
 8000500:	08001490 	stmdaeq	r0, {r4, r7, sl, ip}
 8000504:	08001470 	stmdaeq	r0, {r4, r5, r6, sl, ip}

08000508 <__sflush_r>:
 8000508:	b5f8      	push	{r3, r4, r5, r6, r7, lr}
 800050a:	f9b1 300c 	ldrsh.w	r3, [r1, #12]
 800050e:	460c      	mov	r4, r1
 8000510:	071e      	lsls	r6, r3, #28
 8000512:	4607      	mov	r7, r0
 8000514:	d43c      	bmi.n	8000590 <__sflush_r+0x88>
 8000516:	684a      	ldr	r2, [r1, #4]
 8000518:	2a00      	cmp	r2, #0
 800051a:	dd56      	ble.n	80005ca <__sflush_r+0xc2>
 800051c:	6ae5      	ldr	r5, [r4, #44]	@ 0x2c
 800051e:	2d00      	cmp	r5, #0
 8000520:	d034      	beq.n	800058c <__sflush_r+0x84>
 8000522:	2200      	movs	r2, #0
 8000524:	683e      	ldr	r6, [r7, #0]
 8000526:	603a      	str	r2, [r7, #0]
 8000528:	f413 5280 	ands.w	r2, r3, #4096	@ 0x1000
 800052c:	d159      	bne.n	80005e2 <__sflush_r+0xda>
 800052e:	2301      	movs	r3, #1
 8000530:	4638      	mov	r0, r7
 8000532:	6a21      	ldr	r1, [r4, #32]
 8000534:	47a8      	blx	r5
 8000536:	1c45      	adds	r5, r0, #1
 8000538:	4602      	mov	r2, r0
 800053a:	d05d      	beq.n	80005f8 <__sflush_r+0xf0>
 800053c:	f9b4 300c 	ldrsh.w	r3, [r4, #12]
 8000540:	6ae5      	ldr	r5, [r4, #44]	@ 0x2c
 8000542:	0758      	lsls	r0, r3, #29
 8000544:	d505      	bpl.n	8000552 <__sflush_r+0x4a>
 8000546:	6863      	ldr	r3, [r4, #4]
 8000548:	1ad2      	subs	r2, r2, r3
 800054a:	6b63      	ldr	r3, [r4, #52]	@ 0x34
 800054c:	b10b      	cbz	r3, 8000552 <__sflush_r+0x4a>
 800054e:	6c23      	ldr	r3, [r4, #64]	@ 0x40
 8000550:	1ad2      	subs	r2, r2, r3
 8000552:	6a21      	ldr	r1, [r4, #32]
 8000554:	2300      	movs	r3, #0
 8000556:	4638      	mov	r0, r7
 8000558:	47a8      	blx	r5
 800055a:	1c41      	adds	r1, r0, #1
 800055c:	d143      	bne.n	80005e6 <__sflush_r+0xde>
 800055e:	683b      	ldr	r3, [r7, #0]
 8000560:	2b00      	cmp	r3, #0
 8000562:	d040      	beq.n	80005e6 <__sflush_r+0xde>
 8000564:	2b1d      	cmp	r3, #29
 8000566:	d001      	beq.n	800056c <__sflush_r+0x64>
 8000568:	2b16      	cmp	r3, #22
 800056a:	d132      	bne.n	80005d2 <__sflush_r+0xca>
 800056c:	2300      	movs	r3, #0
 800056e:	6922      	ldr	r2, [r4, #16]
 8000570:	e9c4 2300 	strd	r2, r3, [r4]
 8000574:	6b61      	ldr	r1, [r4, #52]	@ 0x34
 8000576:	603e      	str	r6, [r7, #0]
 8000578:	b141      	cbz	r1, 800058c <__sflush_r+0x84>
 800057a:	f104 0344 	add.w	r3, r4, #68	@ 0x44
 800057e:	4299      	cmp	r1, r3
 8000580:	d002      	beq.n	8000588 <__sflush_r+0x80>
 8000582:	4638      	mov	r0, r7
 8000584:	f000 fa8c 	bl	8000aa0 <_free_r>
 8000588:	2300      	movs	r3, #0
 800058a:	6363      	str	r3, [r4, #52]	@ 0x34
 800058c:	2000      	movs	r0, #0
 800058e:	bdf8      	pop	{r3, r4, r5, r6, r7, pc}
 8000590:	690e      	ldr	r6, [r1, #16]
 8000592:	2e00      	cmp	r6, #0
 8000594:	d0fa      	beq.n	800058c <__sflush_r+0x84>
 8000596:	079b      	lsls	r3, r3, #30
 8000598:	bf18      	it	ne
 800059a:	2300      	movne	r3, #0
 800059c:	680d      	ldr	r5, [r1, #0]
 800059e:	bf08      	it	eq
 80005a0:	694b      	ldreq	r3, [r1, #20]
 80005a2:	600e      	str	r6, [r1, #0]
 80005a4:	1bad      	subs	r5, r5, r6
 80005a6:	608b      	str	r3, [r1, #8]
 80005a8:	e00c      	b.n	80005c4 <__sflush_r+0xbc>
 80005aa:	462b      	mov	r3, r5
 80005ac:	4632      	mov	r2, r6
 80005ae:	f8d4 c028 	ldr.w	ip, [r4, #40]	@ 0x28
 80005b2:	4638      	mov	r0, r7
 80005b4:	6a21      	ldr	r1, [r4, #32]
 80005b6:	47e0      	blx	ip
 80005b8:	f1b0 0c00 	subs.w	ip, r0, #0
 80005bc:	eba5 050c 	sub.w	r5, r5, ip
 80005c0:	4466      	add	r6, ip
 80005c2:	dd06      	ble.n	80005d2 <__sflush_r+0xca>
 80005c4:	2d00      	cmp	r5, #0
 80005c6:	dcf0      	bgt.n	80005aa <__sflush_r+0xa2>
 80005c8:	e7e0      	b.n	800058c <__sflush_r+0x84>
 80005ca:	6c0a      	ldr	r2, [r1, #64]	@ 0x40
 80005cc:	2a00      	cmp	r2, #0
 80005ce:	dca5      	bgt.n	800051c <__sflush_r+0x14>
 80005d0:	e7dc      	b.n	800058c <__sflush_r+0x84>
 80005d2:	f9b4 300c 	ldrsh.w	r3, [r4, #12]
 80005d6:	f04f 30ff 	mov.w	r0, #4294967295	@ 0xffffffff
 80005da:	f043 0340 	orr.w	r3, r3, #64	@ 0x40
 80005de:	81a3      	strh	r3, [r4, #12]
 80005e0:	bdf8      	pop	{r3, r4, r5, r6, r7, pc}
 80005e2:	6d62      	ldr	r2, [r4, #84]	@ 0x54
 80005e4:	e7ad      	b.n	8000542 <__sflush_r+0x3a>
 80005e6:	2200      	movs	r2, #0
 80005e8:	6923      	ldr	r3, [r4, #16]
 80005ea:	6062      	str	r2, [r4, #4]
 80005ec:	6023      	str	r3, [r4, #0]
 80005ee:	89a3      	ldrh	r3, [r4, #12]
 80005f0:	04da      	lsls	r2, r3, #19
 80005f2:	d5bf      	bpl.n	8000574 <__sflush_r+0x6c>
 80005f4:	6560      	str	r0, [r4, #84]	@ 0x54
 80005f6:	e7bd      	b.n	8000574 <__sflush_r+0x6c>
 80005f8:	683b      	ldr	r3, [r7, #0]
 80005fa:	2b00      	cmp	r3, #0
 80005fc:	d09e      	beq.n	800053c <__sflush_r+0x34>
 80005fe:	2b1d      	cmp	r3, #29
 8000600:	d001      	beq.n	8000606 <__sflush_r+0xfe>
 8000602:	2b16      	cmp	r3, #22
 8000604:	d1e5      	bne.n	80005d2 <__sflush_r+0xca>
 8000606:	603e      	str	r6, [r7, #0]
 8000608:	e7c0      	b.n	800058c <__sflush_r+0x84>
 800060a:	bf00      	nop

0800060c <_fflush_r>:
 800060c:	b538      	push	{r3, r4, r5, lr}
 800060e:	690b      	ldr	r3, [r1, #16]
 8000610:	b1bb      	cbz	r3, 8000642 <_fflush_r+0x36>
 8000612:	460c      	mov	r4, r1
 8000614:	4605      	mov	r5, r0
 8000616:	b108      	cbz	r0, 800061c <_fflush_r+0x10>
 8000618:	6983      	ldr	r3, [r0, #24]
 800061a:	b1b3      	cbz	r3, 800064a <_fflush_r+0x3e>
 800061c:	4b0d      	ldr	r3, [pc, #52]	@ (8000654 <_fflush_r+0x48>)
 800061e:	429c      	cmp	r4, r3
 8000620:	d011      	beq.n	8000646 <_fflush_r+0x3a>
 8000622:	4b0d      	ldr	r3, [pc, #52]	@ (8000658 <_fflush_r+0x4c>)
 8000624:	429c      	cmp	r4, r3
 8000626:	d013      	beq.n	8000650 <_fflush_r+0x44>
 8000628:	4b0c      	ldr	r3, [pc, #48]	@ (800065c <_fflush_r+0x50>)
 800062a:	429c      	cmp	r4, r3
 800062c:	bf08      	it	eq
 800062e:	68ec      	ldreq	r4, [r5, #12]
 8000630:	f9b4 300c 	ldrsh.w	r3, [r4, #12]
 8000634:	b12b      	cbz	r3, 8000642 <_fflush_r+0x36>
 8000636:	4621      	mov	r1, r4
 8000638:	4628      	mov	r0, r5
 800063a:	e8bd 4038 	ldmia.w	sp!, {r3, r4, r5, lr}
 800063e:	f7ff bf63 	b.w	8000508 <__sflush_r>
 8000642:	2000      	movs	r0, #0
 8000644:	bd38      	pop	{r3, r4, r5, pc}
 8000646:	686c      	ldr	r4, [r5, #4]
 8000648:	e7f2      	b.n	8000630 <_fflush_r+0x24>
 800064a:	f000 f93d 	bl	80008c8 <__sinit>
 800064e:	e7e5      	b.n	800061c <_fflush_r+0x10>
 8000650:	68ac      	ldr	r4, [r5, #8]
 8000652:	e7ed      	b.n	8000630 <_fflush_r+0x24>
 8000654:	080014b0 	stmdaeq	r0, {r4, r5, r7, sl, ip}
 8000658:	08001490 	stmdaeq	r0, {r4, r7, sl, ip}
 800065c:	08001470 	stmdaeq	r0, {r4, r5, r6, sl, ip}

08000660 <fflush>:
 8000660:	b538      	push	{r3, r4, r5, lr}
 8000662:	b340      	cbz	r0, 80006b6 <fflush+0x56>
 8000664:	4a18      	ldr	r2, [pc, #96]	@ (80006c8 <fflush+0x68>)
 8000666:	6903      	ldr	r3, [r0, #16]
 8000668:	4604      	mov	r4, r0
 800066a:	6815      	ldr	r5, [r2, #0]
 800066c:	b1d3      	cbz	r3, 80006a4 <fflush+0x44>
 800066e:	b10d      	cbz	r5, 8000674 <fflush+0x14>
 8000670:	69ab      	ldr	r3, [r5, #24]
 8000672:	b1cb      	cbz	r3, 80006a8 <fflush+0x48>
 8000674:	4b15      	ldr	r3, [pc, #84]	@ (80006cc <fflush+0x6c>)
 8000676:	429c      	cmp	r4, r3
 8000678:	d00f      	beq.n	800069a <fflush+0x3a>
 800067a:	4b15      	ldr	r3, [pc, #84]	@ (80006d0 <fflush+0x70>)
 800067c:	429c      	cmp	r4, r3
 800067e:	d021      	beq.n	80006c4 <fflush+0x64>
 8000680:	4b14      	ldr	r3, [pc, #80]	@ (80006d4 <fflush+0x74>)
 8000682:	429c      	cmp	r4, r3
 8000684:	bf08      	it	eq
 8000686:	68ec      	ldreq	r4, [r5, #12]
 8000688:	f9b4 300c 	ldrsh.w	r3, [r4, #12]
 800068c:	b153      	cbz	r3, 80006a4 <fflush+0x44>
 800068e:	4621      	mov	r1, r4
 8000690:	4628      	mov	r0, r5
 8000692:	e8bd 4038 	ldmia.w	sp!, {r3, r4, r5, lr}
 8000696:	f7ff bf37 	b.w	8000508 <__sflush_r>
 800069a:	686c      	ldr	r4, [r5, #4]
 800069c:	f9b4 300c 	ldrsh.w	r3, [r4, #12]
 80006a0:	2b00      	cmp	r3, #0
 80006a2:	d1f4      	bne.n	800068e <fflush+0x2e>
 80006a4:	2000      	movs	r0, #0
 80006a6:	bd38      	pop	{r3, r4, r5, pc}
 80006a8:	4628      	mov	r0, r5
 80006aa:	f000 f90d 	bl	80008c8 <__sinit>
 80006ae:	4b07      	ldr	r3, [pc, #28]	@ (80006cc <fflush+0x6c>)
 80006b0:	429c      	cmp	r4, r3
 80006b2:	d1e2      	bne.n	800067a <fflush+0x1a>
 80006b4:	e7f1      	b.n	800069a <fflush+0x3a>
 80006b6:	4b08      	ldr	r3, [pc, #32]	@ (80006d8 <fflush+0x78>)
 80006b8:	4908      	ldr	r1, [pc, #32]	@ (80006dc <fflush+0x7c>)
 80006ba:	6818      	ldr	r0, [r3, #0]
 80006bc:	e8bd 4038 	ldmia.w	sp!, {r3, r4, r5, lr}
 80006c0:	f000 b942 	b.w	8000948 <_fwalk_reent>
 80006c4:	68ac      	ldr	r4, [r5, #8]
 80006c6:	e7df      	b.n	8000688 <fflush+0x28>
 80006c8:	20000000 	andcs	r0, r0, r0
 80006cc:	080014b0 	stmdaeq	r0, {r4, r5, r7, sl, ip}
 80006d0:	08001490 	stmdaeq	r0, {r4, r7, sl, ip}
 80006d4:	08001470 	stmdaeq	r0, {r4, r5, r6, sl, ip}
 80006d8:	0800146c 	stmdaeq	r0, {r2, r3, r5, r6, sl, ip}
 80006dc:	0800060d 	stmdaeq	r0, {r0, r2, r3, r9, sl}

080006e0 <__fp_lock>:
 80006e0:	2000      	movs	r0, #0
 80006e2:	4770      	bx	lr

080006e4 <_cleanup_r>:
 80006e4:	4901      	ldr	r1, [pc, #4]	@ (80006ec <_cleanup_r+0x8>)
 80006e6:	f000 b92f 	b.w	8000948 <_fwalk_reent>
 80006ea:	bf00      	nop
 80006ec:	0800060d 	stmdaeq	r0, {r0, r2, r3, r9, sl}

080006f0 <__fp_unlock>:
 80006f0:	2000      	movs	r0, #0
 80006f2:	4770      	bx	lr

080006f4 <__sfmoreglue>:
 80006f4:	2368      	movs	r3, #104	@ 0x68
 80006f6:	b570      	push	{r4, r5, r6, lr}
 80006f8:	1e4d      	subs	r5, r1, #1
 80006fa:	fb03 f505 	mul.w	r5, r3, r5
 80006fe:	460e      	mov	r6, r1
 8000700:	f105 0174 	add.w	r1, r5, #116	@ 0x74
 8000704:	f000 fa2a 	bl	8000b5c <_malloc_r>
 8000708:	4604      	mov	r4, r0
 800070a:	b140      	cbz	r0, 800071e <__sfmoreglue+0x2a>
 800070c:	2100      	movs	r1, #0
 800070e:	300c      	adds	r0, #12
 8000710:	e9c4 6001 	strd	r6, r0, [r4, #4]
 8000714:	f105 0268 	add.w	r2, r5, #104	@ 0x68
 8000718:	6021      	str	r1, [r4, #0]
 800071a:	f7ff fd5b 	bl	80001d4 <memset>
 800071e:	4620      	mov	r0, r4
 8000720:	bd70      	pop	{r4, r5, r6, pc}
 8000722:	bf00      	nop

08000724 <__sfp>:
 8000724:	b5f8      	push	{r3, r4, r5, r6, r7, lr}
 8000726:	4b25      	ldr	r3, [pc, #148]	@ (80007bc <__sfp+0x98>)
 8000728:	4606      	mov	r6, r0
 800072a:	681f      	ldr	r7, [r3, #0]
 800072c:	69bb      	ldr	r3, [r7, #24]
 800072e:	b33b      	cbz	r3, 8000780 <__sfp+0x5c>
 8000730:	3748      	adds	r7, #72	@ 0x48
 8000732:	e9d7 3401 	ldrd	r3, r4, [r7, #4]
 8000736:	3b01      	subs	r3, #1
 8000738:	d504      	bpl.n	8000744 <__sfp+0x20>
 800073a:	e01d      	b.n	8000778 <__sfp+0x54>
 800073c:	1c5a      	adds	r2, r3, #1
 800073e:	f104 0468 	add.w	r4, r4, #104	@ 0x68
 8000742:	d019      	beq.n	8000778 <__sfp+0x54>
 8000744:	f9b4 500c 	ldrsh.w	r5, [r4, #12]
 8000748:	3b01      	subs	r3, #1
 800074a:	2d00      	cmp	r5, #0
 800074c:	d1f6      	bne.n	800073c <__sfp+0x18>
 800074e:	4b1c      	ldr	r3, [pc, #112]	@ (80007c0 <__sfp+0x9c>)
 8000750:	2208      	movs	r2, #8
 8000752:	4629      	mov	r1, r5
 8000754:	e9c4 5501 	strd	r5, r5, [r4, #4]
 8000758:	e9c4 5504 	strd	r5, r5, [r4, #16]
 800075c:	60e3      	str	r3, [r4, #12]
 800075e:	6665      	str	r5, [r4, #100]	@ 0x64
 8000760:	6025      	str	r5, [r4, #0]
 8000762:	61a5      	str	r5, [r4, #24]
 8000764:	f104 005c 	add.w	r0, r4, #92	@ 0x5c
 8000768:	f7ff fd34 	bl	80001d4 <memset>
 800076c:	e9c4 550d 	strd	r5, r5, [r4, #52]	@ 0x34
 8000770:	e9c4 5512 	strd	r5, r5, [r4, #72]	@ 0x48
 8000774:	4620      	mov	r0, r4
 8000776:	bdf8      	pop	{r3, r4, r5, r6, r7, pc}
 8000778:	683d      	ldr	r5, [r7, #0]
 800077a:	b12d      	cbz	r5, 8000788 <__sfp+0x64>
 800077c:	462f      	mov	r7, r5
 800077e:	e7d8      	b.n	8000732 <__sfp+0xe>
 8000780:	4638      	mov	r0, r7
 8000782:	f000 f81f 	bl	80007c4 <__sinit.part.0>
 8000786:	e7d3      	b.n	8000730 <__sfp+0xc>
 8000788:	f44f 71d6 	mov.w	r1, #428	@ 0x1ac
 800078c:	4630      	mov	r0, r6
 800078e:	f000 f9e5 	bl	8000b5c <_malloc_r>
 8000792:	4604      	mov	r4, r0
 8000794:	b168      	cbz	r0, 80007b2 <__sfp+0x8e>
 8000796:	2304      	movs	r3, #4
 8000798:	6005      	str	r5, [r0, #0]
 800079a:	4629      	mov	r1, r5
 800079c:	4605      	mov	r5, r0
 800079e:	300c      	adds	r0, #12
 80007a0:	f44f 72d0 	mov.w	r2, #416	@ 0x1a0
 80007a4:	60a0      	str	r0, [r4, #8]
 80007a6:	6063      	str	r3, [r4, #4]
 80007a8:	f7ff fd14 	bl	80001d4 <memset>
 80007ac:	603c      	str	r4, [r7, #0]
 80007ae:	462f      	mov	r7, r5
 80007b0:	e7bf      	b.n	8000732 <__sfp+0xe>
 80007b2:	230c      	movs	r3, #12
 80007b4:	6038      	str	r0, [r7, #0]
 80007b6:	6033      	str	r3, [r6, #0]
 80007b8:	e7dc      	b.n	8000774 <__sfp+0x50>
 80007ba:	bf00      	nop
 80007bc:	0800146c 	stmdaeq	r0, {r2, r3, r5, r6, sl, ip}
 80007c0:	ffff0001 			@ <UNDEFINED> instruction: 0xffff0001

080007c4 <__sinit.part.0>:
 80007c4:	2300      	movs	r3, #0
 80007c6:	4a33      	ldr	r2, [pc, #204]	@ (8000894 <__sinit.part.0+0xd0>)
 80007c8:	e92d 47f0 	stmdb	sp!, {r4, r5, r6, r7, r8, r9, sl, lr}
 80007cc:	6812      	ldr	r2, [r2, #0]
 80007ce:	e9c0 3312 	strd	r3, r3, [r0, #72]	@ 0x48
 80007d2:	4290      	cmp	r0, r2
 80007d4:	6503      	str	r3, [r0, #80]	@ 0x50
 80007d6:	bf08      	it	eq
 80007d8:	2301      	moveq	r3, #1
 80007da:	492f      	ldr	r1, [pc, #188]	@ (8000898 <__sinit.part.0+0xd4>)
 80007dc:	bf08      	it	eq
 80007de:	6183      	streq	r3, [r0, #24]
 80007e0:	6281      	str	r1, [r0, #40]	@ 0x28
 80007e2:	4605      	mov	r5, r0
 80007e4:	f7ff ff9e 	bl	8000724 <__sfp>
 80007e8:	4603      	mov	r3, r0
 80007ea:	4628      	mov	r0, r5
 80007ec:	606b      	str	r3, [r5, #4]
 80007ee:	f7ff ff99 	bl	8000724 <__sfp>
 80007f2:	60a8      	str	r0, [r5, #8]
 80007f4:	4628      	mov	r0, r5
 80007f6:	2400      	movs	r4, #0
 80007f8:	f7ff ff94 	bl	8000724 <__sfp>
 80007fc:	2304      	movs	r3, #4
 80007fe:	686e      	ldr	r6, [r5, #4]
 8000800:	f8df a098 	ldr.w	sl, [pc, #152]	@ 800089c <__sinit.part.0+0xd8>
 8000804:	f8df 9098 	ldr.w	r9, [pc, #152]	@ 80008a0 <__sinit.part.0+0xdc>
 8000808:	f8df 8098 	ldr.w	r8, [pc, #152]	@ 80008a4 <__sinit.part.0+0xe0>
 800080c:	4f26      	ldr	r7, [pc, #152]	@ (80008a8 <__sinit.part.0+0xe4>)
 800080e:	60e8      	str	r0, [r5, #12]
 8000810:	2208      	movs	r2, #8
 8000812:	60f3      	str	r3, [r6, #12]
 8000814:	4621      	mov	r1, r4
 8000816:	e9c6 4400 	strd	r4, r4, [r6]
 800081a:	e9c6 4404 	strd	r4, r4, [r6, #16]
 800081e:	60b4      	str	r4, [r6, #8]
 8000820:	6674      	str	r4, [r6, #100]	@ 0x64
 8000822:	61b4      	str	r4, [r6, #24]
 8000824:	f106 005c 	add.w	r0, r6, #92	@ 0x5c
 8000828:	f7ff fcd4 	bl	80001d4 <memset>
 800082c:	4b1f      	ldr	r3, [pc, #124]	@ (80008ac <__sinit.part.0+0xe8>)
 800082e:	e9c6 6a08 	strd	r6, sl, [r6, #32]
 8000832:	e9c6 980a 	strd	r9, r8, [r6, #40]	@ 0x28
 8000836:	6337      	str	r7, [r6, #48]	@ 0x30
 8000838:	68ae      	ldr	r6, [r5, #8]
 800083a:	2208      	movs	r2, #8
 800083c:	60f3      	str	r3, [r6, #12]
 800083e:	4621      	mov	r1, r4
 8000840:	e9c6 4400 	strd	r4, r4, [r6]
 8000844:	e9c6 4404 	strd	r4, r4, [r6, #16]
 8000848:	60b4      	str	r4, [r6, #8]
 800084a:	6674      	str	r4, [r6, #100]	@ 0x64
 800084c:	61b4      	str	r4, [r6, #24]
 800084e:	f106 005c 	add.w	r0, r6, #92	@ 0x5c
 8000852:	f7ff fcbf 	bl	80001d4 <memset>
 8000856:	4b16      	ldr	r3, [pc, #88]	@ (80008b0 <__sinit.part.0+0xec>)
 8000858:	e9c6 6a08 	strd	r6, sl, [r6, #32]
 800085c:	e9c6 980a 	strd	r9, r8, [r6, #40]	@ 0x28
 8000860:	6337      	str	r7, [r6, #48]	@ 0x30
 8000862:	68ee      	ldr	r6, [r5, #12]
 8000864:	4621      	mov	r1, r4
 8000866:	60f3      	str	r3, [r6, #12]
 8000868:	2208      	movs	r2, #8
 800086a:	e9c6 4400 	strd	r4, r4, [r6]
 800086e:	e9c6 4404 	strd	r4, r4, [r6, #16]
 8000872:	60b4      	str	r4, [r6, #8]
 8000874:	6674      	str	r4, [r6, #100]	@ 0x64
 8000876:	61b4      	str	r4, [r6, #24]
 8000878:	f106 005c 	add.w	r0, r6, #92	@ 0x5c
 800087c:	f7ff fcaa 	bl	80001d4 <memset>
 8000880:	2301      	movs	r3, #1
 8000882:	e9c6 6a08 	strd	r6, sl, [r6, #32]
 8000886:	e9c6 870b 	strd	r8, r7, [r6, #44]	@ 0x2c
 800088a:	f8c6 9028 	str.w	r9, [r6, #40]	@ 0x28
 800088e:	61ab      	str	r3, [r5, #24]
 8000890:	e8bd 87f0 	ldmia.w	sp!, {r4, r5, r6, r7, r8, r9, sl, pc}
 8000894:	0800146c 	stmdaeq	r0, {r2, r3, r5, r6, sl, ip}
 8000898:	080006e5 	stmdaeq	r0, {r0, r2, r5, r6, r7, r9, sl}
 800089c:	08000c35 	stmdaeq	r0, {r0, r2, r4, r5, sl, fp}
 80008a0:	08000c5d 	stmdaeq	r0, {r0, r2, r3, r4, r6, sl, fp}
 80008a4:	08000c9d 	stmdaeq	r0, {r0, r2, r3, r4, r7, sl, fp}
 80008a8:	08000cc1 	stmdaeq	r0, {r0, r6, r7, sl, fp}
 80008ac:	00010009 	andeq	r0, r1, r9
 80008b0:	00020012 	andeq	r0, r2, r2, lsl r0

080008b4 <_cleanup>:
 80008b4:	4b02      	ldr	r3, [pc, #8]	@ (80008c0 <_cleanup+0xc>)
 80008b6:	4903      	ldr	r1, [pc, #12]	@ (80008c4 <_cleanup+0x10>)
 80008b8:	6818      	ldr	r0, [r3, #0]
 80008ba:	f000 b845 	b.w	8000948 <_fwalk_reent>
 80008be:	bf00      	nop
 80008c0:	0800146c 	stmdaeq	r0, {r2, r3, r5, r6, sl, ip}
 80008c4:	0800060d 	stmdaeq	r0, {r0, r2, r3, r9, sl}

080008c8 <__sinit>:
 80008c8:	6983      	ldr	r3, [r0, #24]
 80008ca:	b903      	cbnz	r3, 80008ce <__sinit+0x6>
 80008cc:	e77a      	b.n	80007c4 <__sinit.part.0>
 80008ce:	4770      	bx	lr

080008d0 <__sfp_lock_acquire>:
 80008d0:	4770      	bx	lr
 80008d2:	bf00      	nop

080008d4 <__sfp_lock_release>:
 80008d4:	4770      	bx	lr
 80008d6:	bf00      	nop

080008d8 <__sinit_lock_acquire>:
 80008d8:	4770      	bx	lr
 80008da:	bf00      	nop

080008dc <__sinit_lock_release>:
 80008dc:	4770      	bx	lr
 80008de:	bf00      	nop

080008e0 <__fp_lock_all>:
 80008e0:	4b02      	ldr	r3, [pc, #8]	@ (80008ec <__fp_lock_all+0xc>)
 80008e2:	4903      	ldr	r1, [pc, #12]	@ (80008f0 <__fp_lock_all+0x10>)
 80008e4:	6818      	ldr	r0, [r3, #0]
 80008e6:	f000 b80f 	b.w	8000908 <_fwalk>
 80008ea:	bf00      	nop
 80008ec:	20000000 	andcs	r0, r0, r0
 80008f0:	080006e1 	stmdaeq	r0, {r0, r5, r6, r7, r9, sl}

080008f4 <__fp_unlock_all>:
 80008f4:	4b02      	ldr	r3, [pc, #8]	@ (8000900 <__fp_unlock_all+0xc>)
 80008f6:	4903      	ldr	r1, [pc, #12]	@ (8000904 <__fp_unlock_all+0x10>)
 80008f8:	6818      	ldr	r0, [r3, #0]
 80008fa:	f000 b805 	b.w	8000908 <_fwalk>
 80008fe:	bf00      	nop
 8000900:	20000000 	andcs	r0, r0, r0
 8000904:	080006f1 	stmdaeq	r0, {r0, r4, r5, r6, r7, r9, sl}

08000908 <_fwalk>:
 8000908:	e92d 41f0 	stmdb	sp!, {r4, r5, r6, r7, r8, lr}
 800090c:	2600      	movs	r6, #0
 800090e:	4688      	mov	r8, r1
 8000910:	f100 0748 	add.w	r7, r0, #72	@ 0x48
 8000914:	e9d7 5401 	ldrd	r5, r4, [r7, #4]
 8000918:	3d01      	subs	r5, #1
 800091a:	d40e      	bmi.n	800093a <_fwalk+0x32>
 800091c:	89a3      	ldrh	r3, [r4, #12]
 800091e:	3d01      	subs	r5, #1
 8000920:	2b01      	cmp	r3, #1
 8000922:	d906      	bls.n	8000932 <_fwalk+0x2a>
 8000924:	f9b4 300e 	ldrsh.w	r3, [r4, #14]
 8000928:	3301      	adds	r3, #1
 800092a:	d002      	beq.n	8000932 <_fwalk+0x2a>
 800092c:	4620      	mov	r0, r4
 800092e:	47c0      	blx	r8
 8000930:	4306      	orrs	r6, r0
 8000932:	1c6b      	adds	r3, r5, #1
 8000934:	f104 0468 	add.w	r4, r4, #104	@ 0x68
 8000938:	d1f0      	bne.n	800091c <_fwalk+0x14>
 800093a:	683f      	ldr	r7, [r7, #0]
 800093c:	2f00      	cmp	r7, #0
 800093e:	d1e9      	bne.n	8000914 <_fwalk+0xc>
 8000940:	4630      	mov	r0, r6
 8000942:	e8bd 81f0 	ldmia.w	sp!, {r4, r5, r6, r7, r8, pc}
 8000946:	bf00      	nop

08000948 <_fwalk_reent>:
 8000948:	e92d 43f8 	stmdb	sp!, {r3, r4, r5, r6, r7, r8, r9, lr}
 800094c:	f04f 0900 	mov.w	r9, #0
 8000950:	4607      	mov	r7, r0
 8000952:	4688      	mov	r8, r1
 8000954:	f100 0648 	add.w	r6, r0, #72	@ 0x48
 8000958:	e9d6 5401 	ldrd	r5, r4, [r6, #4]
 800095c:	3d01      	subs	r5, #1
 800095e:	d410      	bmi.n	8000982 <_fwalk_reent+0x3a>
 8000960:	89a3      	ldrh	r3, [r4, #12]
 8000962:	3d01      	subs	r5, #1
 8000964:	2b01      	cmp	r3, #1
 8000966:	d908      	bls.n	800097a <_fwalk_reent+0x32>
 8000968:	f9b4 300e 	ldrsh.w	r3, [r4, #14]
 800096c:	3301      	adds	r3, #1
 800096e:	d004      	beq.n	800097a <_fwalk_reent+0x32>
 8000970:	4621      	mov	r1, r4
 8000972:	4638      	mov	r0, r7
 8000974:	47c0      	blx	r8
 8000976:	ea49 0900 	orr.w	r9, r9, r0
 800097a:	1c6b      	adds	r3, r5, #1
 800097c:	f104 0468 	add.w	r4, r4, #104	@ 0x68
 8000980:	d1ee      	bne.n	8000960 <_fwalk_reent+0x18>
 8000982:	6836      	ldr	r6, [r6, #0]
 8000984:	2e00      	cmp	r6, #0
 8000986:	d1e7      	bne.n	8000958 <_fwalk_reent+0x10>
 8000988:	4648      	mov	r0, r9
 800098a:	e8bd 83f8 	ldmia.w	sp!, {r3, r4, r5, r6, r7, r8, r9, pc}
 800098e:	bf00      	nop

08000990 <__smakebuf_r>:
 8000990:	b5f0      	push	{r4, r5, r6, r7, lr}
 8000992:	f9b1 300c 	ldrsh.w	r3, [r1, #12]
 8000996:	460c      	mov	r4, r1
 8000998:	0799      	lsls	r1, r3, #30
 800099a:	b097      	sub	sp, #92	@ 0x5c
 800099c:	d507      	bpl.n	80009ae <__smakebuf_r+0x1e>
 800099e:	2201      	movs	r2, #1
 80009a0:	f104 0347 	add.w	r3, r4, #71	@ 0x47
 80009a4:	e9c4 3204 	strd	r3, r2, [r4, #16]
 80009a8:	6023      	str	r3, [r4, #0]
 80009aa:	b017      	add	sp, #92	@ 0x5c
 80009ac:	bdf0      	pop	{r4, r5, r6, r7, pc}
 80009ae:	f9b4 100e 	ldrsh.w	r1, [r4, #14]
 80009b2:	4605      	mov	r5, r0
 80009b4:	2900      	cmp	r1, #0
 80009b6:	db2e      	blt.n	8000a16 <__smakebuf_r+0x86>
 80009b8:	466a      	mov	r2, sp
 80009ba:	f000 f9ad 	bl	8000d18 <_fstat_r>
 80009be:	2800      	cmp	r0, #0
 80009c0:	db27      	blt.n	8000a12 <__smakebuf_r+0x82>
 80009c2:	9e01      	ldr	r6, [sp, #4]
 80009c4:	f44f 6780 	mov.w	r7, #1024	@ 0x400
 80009c8:	f406 4670 	and.w	r6, r6, #61440	@ 0xf000
 80009cc:	f5a6 5600 	sub.w	r6, r6, #8192	@ 0x2000
 80009d0:	fab6 f686 	clz	r6, r6
 80009d4:	4639      	mov	r1, r7
 80009d6:	4628      	mov	r0, r5
 80009d8:	0976      	lsrs	r6, r6, #5
 80009da:	f000 f8bf 	bl	8000b5c <_malloc_r>
 80009de:	b338      	cbz	r0, 8000a30 <__smakebuf_r+0xa0>
 80009e0:	89a3      	ldrh	r3, [r4, #12]
 80009e2:	4a1b      	ldr	r2, [pc, #108]	@ (8000a50 <__smakebuf_r+0xc0>)
 80009e4:	f043 0380 	orr.w	r3, r3, #128	@ 0x80
 80009e8:	62aa      	str	r2, [r5, #40]	@ 0x28
 80009ea:	e9c4 0704 	strd	r0, r7, [r4, #16]
 80009ee:	81a3      	strh	r3, [r4, #12]
 80009f0:	6020      	str	r0, [r4, #0]
 80009f2:	2e00      	cmp	r6, #0
 80009f4:	d0d9      	beq.n	80009aa <__smakebuf_r+0x1a>
 80009f6:	4628      	mov	r0, r5
 80009f8:	f9b4 100e 	ldrsh.w	r1, [r4, #14]
 80009fc:	f000 f9a0 	bl	8000d40 <_isatty_r>
 8000a00:	2800      	cmp	r0, #0
 8000a02:	d0d2      	beq.n	80009aa <__smakebuf_r+0x1a>
 8000a04:	89a3      	ldrh	r3, [r4, #12]
 8000a06:	f023 0303 	bic.w	r3, r3, #3
 8000a0a:	f043 0301 	orr.w	r3, r3, #1
 8000a0e:	81a3      	strh	r3, [r4, #12]
 8000a10:	e7cb      	b.n	80009aa <__smakebuf_r+0x1a>
 8000a12:	f9b4 300c 	ldrsh.w	r3, [r4, #12]
 8000a16:	f013 0f80 	tst.w	r3, #128	@ 0x80
 8000a1a:	bf0c      	ite	eq
 8000a1c:	f44f 6780 	moveq.w	r7, #1024	@ 0x400
 8000a20:	2740      	movne	r7, #64	@ 0x40
 8000a22:	4628      	mov	r0, r5
 8000a24:	4639      	mov	r1, r7
 8000a26:	2600      	movs	r6, #0
 8000a28:	f000 f898 	bl	8000b5c <_malloc_r>
 8000a2c:	2800      	cmp	r0, #0
 8000a2e:	d1d7      	bne.n	80009e0 <__smakebuf_r+0x50>
 8000a30:	f9b4 300c 	ldrsh.w	r3, [r4, #12]
 8000a34:	059a      	lsls	r2, r3, #22
 8000a36:	d4b8      	bmi.n	80009aa <__smakebuf_r+0x1a>
 8000a38:	2101      	movs	r1, #1
 8000a3a:	f023 0303 	bic.w	r3, r3, #3
 8000a3e:	f104 0247 	add.w	r2, r4, #71	@ 0x47
 8000a42:	f043 0302 	orr.w	r3, r3, #2
 8000a46:	e9c4 2104 	strd	r2, r1, [r4, #16]
 8000a4a:	81a3      	strh	r3, [r4, #12]
 8000a4c:	6022      	str	r2, [r4, #0]
 8000a4e:	e7ac      	b.n	80009aa <__smakebuf_r+0x1a>
 8000a50:	080006e5 	stmdaeq	r0, {r0, r2, r5, r6, r7, r9, sl}

08000a54 <__swhatbuf_r>:
 8000a54:	b570      	push	{r4, r5, r6, lr}
 8000a56:	460c      	mov	r4, r1
 8000a58:	f9b1 100e 	ldrsh.w	r1, [r1, #14]
 8000a5c:	4615      	mov	r5, r2
 8000a5e:	2900      	cmp	r1, #0
 8000a60:	461e      	mov	r6, r3
 8000a62:	b096      	sub	sp, #88	@ 0x58
 8000a64:	db0f      	blt.n	8000a86 <__swhatbuf_r+0x32>
 8000a66:	466a      	mov	r2, sp
 8000a68:	f000 f956 	bl	8000d18 <_fstat_r>
 8000a6c:	2800      	cmp	r0, #0
 8000a6e:	db0a      	blt.n	8000a86 <__swhatbuf_r+0x32>
 8000a70:	9b01      	ldr	r3, [sp, #4]
 8000a72:	f44f 6280 	mov.w	r2, #1024	@ 0x400
 8000a76:	f403 4370 	and.w	r3, r3, #61440	@ 0xf000
 8000a7a:	f5a3 5300 	sub.w	r3, r3, #8192	@ 0x2000
 8000a7e:	fab3 f383 	clz	r3, r3
 8000a82:	095b      	lsrs	r3, r3, #5
 8000a84:	e007      	b.n	8000a96 <__swhatbuf_r+0x42>
 8000a86:	89a2      	ldrh	r2, [r4, #12]
 8000a88:	2300      	movs	r3, #0
 8000a8a:	f012 0f80 	tst.w	r2, #128	@ 0x80
 8000a8e:	bf14      	ite	ne
 8000a90:	2240      	movne	r2, #64	@ 0x40
 8000a92:	f44f 6280 	moveq.w	r2, #1024	@ 0x400
 8000a96:	2000      	movs	r0, #0
 8000a98:	6033      	str	r3, [r6, #0]
 8000a9a:	602a      	str	r2, [r5, #0]
 8000a9c:	b016      	add	sp, #88	@ 0x58
 8000a9e:	bd70      	pop	{r4, r5, r6, pc}

08000aa0 <_free_r>:
 8000aa0:	2900      	cmp	r1, #0
 8000aa2:	d050      	beq.n	8000b46 <_free_r+0xa6>
 8000aa4:	b538      	push	{r3, r4, r5, lr}
 8000aa6:	f851 3c04 	ldr.w	r3, [r1, #-4]
 8000aaa:	1f0c      	subs	r4, r1, #4
 8000aac:	2b00      	cmp	r3, #0
 8000aae:	bfb8      	it	lt
 8000ab0:	18e4      	addlt	r4, r4, r3
 8000ab2:	4605      	mov	r5, r0
 8000ab4:	f000 f96c 	bl	8000d90 <__malloc_lock>
 8000ab8:	4a27      	ldr	r2, [pc, #156]	@ (8000b58 <_free_r+0xb8>)
 8000aba:	6813      	ldr	r3, [r2, #0]
 8000abc:	b12b      	cbz	r3, 8000aca <_free_r+0x2a>
 8000abe:	42a3      	cmp	r3, r4
 8000ac0:	d90c      	bls.n	8000adc <_free_r+0x3c>
 8000ac2:	6821      	ldr	r1, [r4, #0]
 8000ac4:	1860      	adds	r0, r4, r1
 8000ac6:	4283      	cmp	r3, r0
 8000ac8:	d02c      	beq.n	8000b24 <_free_r+0x84>
 8000aca:	4628      	mov	r0, r5
 8000acc:	6063      	str	r3, [r4, #4]
 8000ace:	6014      	str	r4, [r2, #0]
 8000ad0:	e8bd 4038 	ldmia.w	sp!, {r3, r4, r5, lr}
 8000ad4:	f000 b95e 	b.w	8000d94 <__malloc_unlock>
 8000ad8:	42a3      	cmp	r3, r4
 8000ada:	d80f      	bhi.n	8000afc <_free_r+0x5c>
 8000adc:	461a      	mov	r2, r3
 8000ade:	685b      	ldr	r3, [r3, #4]
 8000ae0:	2b00      	cmp	r3, #0
 8000ae2:	d1f9      	bne.n	8000ad8 <_free_r+0x38>
 8000ae4:	6811      	ldr	r1, [r2, #0]
 8000ae6:	1850      	adds	r0, r2, r1
 8000ae8:	4284      	cmp	r4, r0
 8000aea:	d017      	beq.n	8000b1c <_free_r+0x7c>
 8000aec:	d32c      	bcc.n	8000b48 <_free_r+0xa8>
 8000aee:	6063      	str	r3, [r4, #4]
 8000af0:	6054      	str	r4, [r2, #4]
 8000af2:	4628      	mov	r0, r5
 8000af4:	e8bd 4038 	ldmia.w	sp!, {r3, r4, r5, lr}
 8000af8:	f000 b94c 	b.w	8000d94 <__malloc_unlock>
 8000afc:	6811      	ldr	r1, [r2, #0]
 8000afe:	1850      	adds	r0, r2, r1
 8000b00:	42a0      	cmp	r0, r4
 8000b02:	d014      	beq.n	8000b2e <_free_r+0x8e>
 8000b04:	d820      	bhi.n	8000b48 <_free_r+0xa8>
 8000b06:	6821      	ldr	r1, [r4, #0]
 8000b08:	1860      	adds	r0, r4, r1
 8000b0a:	4283      	cmp	r3, r0
 8000b0c:	d1ef      	bne.n	8000aee <_free_r+0x4e>
 8000b0e:	6818      	ldr	r0, [r3, #0]
 8000b10:	685b      	ldr	r3, [r3, #4]
 8000b12:	4408      	add	r0, r1
 8000b14:	e9c4 0300 	strd	r0, r3, [r4]
 8000b18:	6054      	str	r4, [r2, #4]
 8000b1a:	e7ea      	b.n	8000af2 <_free_r+0x52>
 8000b1c:	6823      	ldr	r3, [r4, #0]
 8000b1e:	440b      	add	r3, r1
 8000b20:	6013      	str	r3, [r2, #0]
 8000b22:	e7e6      	b.n	8000af2 <_free_r+0x52>
 8000b24:	6818      	ldr	r0, [r3, #0]
 8000b26:	685b      	ldr	r3, [r3, #4]
 8000b28:	4408      	add	r0, r1
 8000b2a:	6020      	str	r0, [r4, #0]
 8000b2c:	e7cd      	b.n	8000aca <_free_r+0x2a>
 8000b2e:	6820      	ldr	r0, [r4, #0]
 8000b30:	4401      	add	r1, r0
 8000b32:	1850      	adds	r0, r2, r1
 8000b34:	4283      	cmp	r3, r0
 8000b36:	6011      	str	r1, [r2, #0]
 8000b38:	d1db      	bne.n	8000af2 <_free_r+0x52>
 8000b3a:	e9d3 0400 	ldrd	r0, r4, [r3]
 8000b3e:	4401      	add	r1, r0
 8000b40:	e9c2 1400 	strd	r1, r4, [r2]
 8000b44:	e7d5      	b.n	8000af2 <_free_r+0x52>
 8000b46:	4770      	bx	lr
 8000b48:	230c      	movs	r3, #12
 8000b4a:	4628      	mov	r0, r5
 8000b4c:	602b      	str	r3, [r5, #0]
 8000b4e:	e8bd 4038 	ldmia.w	sp!, {r3, r4, r5, lr}
 8000b52:	f000 b91f 	b.w	8000d94 <__malloc_unlock>
 8000b56:	bf00      	nop
 8000b58:	20000084 	andcs	r0, r0, r4, lsl #1

08000b5c <_malloc_r>:
 8000b5c:	b5f8      	push	{r3, r4, r5, r6, r7, lr}
 8000b5e:	1ccd      	adds	r5, r1, #3
 8000b60:	f025 0503 	bic.w	r5, r5, #3
 8000b64:	3508      	adds	r5, #8
 8000b66:	2d0c      	cmp	r5, #12
 8000b68:	bf38      	it	cc
 8000b6a:	250c      	movcc	r5, #12
 8000b6c:	2d00      	cmp	r5, #0
 8000b6e:	4606      	mov	r6, r0
 8000b70:	db15      	blt.n	8000b9e <_malloc_r+0x42>
 8000b72:	42a9      	cmp	r1, r5
 8000b74:	d813      	bhi.n	8000b9e <_malloc_r+0x42>
 8000b76:	4f25      	ldr	r7, [pc, #148]	@ (8000c0c <_malloc_r+0xb0>)
 8000b78:	f000 f90a 	bl	8000d90 <__malloc_lock>
 8000b7c:	683a      	ldr	r2, [r7, #0]
 8000b7e:	b192      	cbz	r2, 8000ba6 <_malloc_r+0x4a>
 8000b80:	4614      	mov	r4, r2
 8000b82:	e003      	b.n	8000b8c <_malloc_r+0x30>
 8000b84:	6863      	ldr	r3, [r4, #4]
 8000b86:	4622      	mov	r2, r4
 8000b88:	b16b      	cbz	r3, 8000ba6 <_malloc_r+0x4a>
 8000b8a:	461c      	mov	r4, r3
 8000b8c:	6823      	ldr	r3, [r4, #0]
 8000b8e:	1b5b      	subs	r3, r3, r5
 8000b90:	d4f8      	bmi.n	8000b84 <_malloc_r+0x28>
 8000b92:	2b0b      	cmp	r3, #11
 8000b94:	d929      	bls.n	8000bea <_malloc_r+0x8e>
 8000b96:	6023      	str	r3, [r4, #0]
 8000b98:	441c      	add	r4, r3
 8000b9a:	6025      	str	r5, [r4, #0]
 8000b9c:	e018      	b.n	8000bd0 <_malloc_r+0x74>
 8000b9e:	230c      	movs	r3, #12
 8000ba0:	6033      	str	r3, [r6, #0]
 8000ba2:	2000      	movs	r0, #0
 8000ba4:	bdf8      	pop	{r3, r4, r5, r6, r7, pc}
 8000ba6:	6879      	ldr	r1, [r7, #4]
 8000ba8:	b359      	cbz	r1, 8000c02 <_malloc_r+0xa6>
 8000baa:	4629      	mov	r1, r5
 8000bac:	4630      	mov	r0, r6
 8000bae:	f000 f82f 	bl	8000c10 <_sbrk_r>
 8000bb2:	1c43      	adds	r3, r0, #1
 8000bb4:	4601      	mov	r1, r0
 8000bb6:	d01e      	beq.n	8000bf6 <_malloc_r+0x9a>
 8000bb8:	1cc4      	adds	r4, r0, #3
 8000bba:	f024 0403 	bic.w	r4, r4, #3
 8000bbe:	42a0      	cmp	r0, r4
 8000bc0:	d005      	beq.n	8000bce <_malloc_r+0x72>
 8000bc2:	4630      	mov	r0, r6
 8000bc4:	1a61      	subs	r1, r4, r1
 8000bc6:	f000 f823 	bl	8000c10 <_sbrk_r>
 8000bca:	3001      	adds	r0, #1
 8000bcc:	d013      	beq.n	8000bf6 <_malloc_r+0x9a>
 8000bce:	6025      	str	r5, [r4, #0]
 8000bd0:	4630      	mov	r0, r6
 8000bd2:	f000 f8df 	bl	8000d94 <__malloc_unlock>
 8000bd6:	f104 000b 	add.w	r0, r4, #11
 8000bda:	1d23      	adds	r3, r4, #4
 8000bdc:	f020 0007 	bic.w	r0, r0, #7
 8000be0:	1ac2      	subs	r2, r0, r3
 8000be2:	bf1c      	itt	ne
 8000be4:	1a1b      	subne	r3, r3, r0
 8000be6:	50a3      	strne	r3, [r4, r2]
 8000be8:	bdf8      	pop	{r3, r4, r5, r6, r7, pc}
 8000bea:	6863      	ldr	r3, [r4, #4]
 8000bec:	4294      	cmp	r4, r2
 8000bee:	bf0c      	ite	eq
 8000bf0:	603b      	streq	r3, [r7, #0]
 8000bf2:	6053      	strne	r3, [r2, #4]
 8000bf4:	e7ec      	b.n	8000bd0 <_malloc_r+0x74>
 8000bf6:	230c      	movs	r3, #12
 8000bf8:	4630      	mov	r0, r6
 8000bfa:	6033      	str	r3, [r6, #0]
 8000bfc:	f000 f8ca 	bl	8000d94 <__malloc_unlock>
 8000c00:	e7cf      	b.n	8000ba2 <_malloc_r+0x46>
 8000c02:	4630      	mov	r0, r6
 8000c04:	f000 f804 	bl	8000c10 <_sbrk_r>
 8000c08:	6078      	str	r0, [r7, #4]
 8000c0a:	e7ce      	b.n	8000baa <_malloc_r+0x4e>
 8000c0c:	20000084 	andcs	r0, r0, r4, lsl #1

08000c10 <_sbrk_r>:
 8000c10:	2200      	movs	r2, #0
 8000c12:	b538      	push	{r3, r4, r5, lr}
 8000c14:	4d06      	ldr	r5, [pc, #24]	@ (8000c30 <_sbrk_r+0x20>)
 8000c16:	4604      	mov	r4, r0
 8000c18:	4608      	mov	r0, r1
 8000c1a:	602a      	str	r2, [r5, #0]
 8000c1c:	f000 f8fa 	bl	8000e14 <_sbrk>
 8000c20:	1c43      	adds	r3, r0, #1
 8000c22:	d000      	beq.n	8000c26 <_sbrk_r+0x16>
 8000c24:	bd38      	pop	{r3, r4, r5, pc}
 8000c26:	682b      	ldr	r3, [r5, #0]
 8000c28:	2b00      	cmp	r3, #0
 8000c2a:	d0fb      	beq.n	8000c24 <_sbrk_r+0x14>
 8000c2c:	6023      	str	r3, [r4, #0]
 8000c2e:	bd38      	pop	{r3, r4, r5, pc}
 8000c30:	2000008c 	andcs	r0, r0, ip, lsl #1

08000c34 <__sread>:
 8000c34:	b510      	push	{r4, lr}
 8000c36:	460c      	mov	r4, r1
 8000c38:	f9b1 100e 	ldrsh.w	r1, [r1, #14]
 8000c3c:	f000 f8ac 	bl	8000d98 <_read_r>
 8000c40:	2800      	cmp	r0, #0
 8000c42:	db03      	blt.n	8000c4c <__sread+0x18>
 8000c44:	6d63      	ldr	r3, [r4, #84]	@ 0x54
 8000c46:	4403      	add	r3, r0
 8000c48:	6563      	str	r3, [r4, #84]	@ 0x54
 8000c4a:	bd10      	pop	{r4, pc}
 8000c4c:	89a3      	ldrh	r3, [r4, #12]
 8000c4e:	f423 5380 	bic.w	r3, r3, #4096	@ 0x1000
 8000c52:	81a3      	strh	r3, [r4, #12]
 8000c54:	bd10      	pop	{r4, pc}
 8000c56:	bf00      	nop

08000c58 <__seofread>:
 8000c58:	2000      	movs	r0, #0
 8000c5a:	4770      	bx	lr

08000c5c <__swrite>:
 8000c5c:	e92d 41f0 	stmdb	sp!, {r4, r5, r6, r7, r8, lr}
 8000c60:	460c      	mov	r4, r1
 8000c62:	f9b1 100c 	ldrsh.w	r1, [r1, #12]
 8000c66:	461f      	mov	r7, r3
 8000c68:	05cb      	lsls	r3, r1, #23
 8000c6a:	4605      	mov	r5, r0
 8000c6c:	4616      	mov	r6, r2
 8000c6e:	d40b      	bmi.n	8000c88 <__swrite+0x2c>
 8000c70:	f421 5180 	bic.w	r1, r1, #4096	@ 0x1000
 8000c74:	81a1      	strh	r1, [r4, #12]
 8000c76:	463b      	mov	r3, r7
 8000c78:	4632      	mov	r2, r6
 8000c7a:	4628      	mov	r0, r5
 8000c7c:	f9b4 100e 	ldrsh.w	r1, [r4, #14]
 8000c80:	e8bd 41f0 	ldmia.w	sp!, {r4, r5, r6, r7, r8, lr}
 8000c84:	f000 b820 	b.w	8000cc8 <_write_r>
 8000c88:	f9b4 100e 	ldrsh.w	r1, [r4, #14]
 8000c8c:	2302      	movs	r3, #2
 8000c8e:	2200      	movs	r2, #0
 8000c90:	f000 f868 	bl	8000d64 <_lseek_r>
 8000c94:	f9b4 100c 	ldrsh.w	r1, [r4, #12]
 8000c98:	e7ea      	b.n	8000c70 <__swrite+0x14>
 8000c9a:	bf00      	nop

08000c9c <__sseek>:
 8000c9c:	b510      	push	{r4, lr}
 8000c9e:	460c      	mov	r4, r1
 8000ca0:	f9b1 100e 	ldrsh.w	r1, [r1, #14]
 8000ca4:	f000 f85e 	bl	8000d64 <_lseek_r>
 8000ca8:	f9b4 300c 	ldrsh.w	r3, [r4, #12]
 8000cac:	1c42      	adds	r2, r0, #1
 8000cae:	bf0e      	itee	eq
 8000cb0:	f423 5380 	biceq.w	r3, r3, #4096	@ 0x1000
 8000cb4:	f443 5380 	orrne.w	r3, r3, #4096	@ 0x1000
 8000cb8:	6560      	strne	r0, [r4, #84]	@ 0x54
 8000cba:	81a3      	strh	r3, [r4, #12]
 8000cbc:	bd10      	pop	{r4, pc}
 8000cbe:	bf00      	nop

08000cc0 <__sclose>:
 8000cc0:	f9b1 100e 	ldrsh.w	r1, [r1, #14]
 8000cc4:	f000 b816 	b.w	8000cf4 <_close_r>

08000cc8 <_write_r>:
 8000cc8:	b538      	push	{r3, r4, r5, lr}
 8000cca:	460c      	mov	r4, r1
 8000ccc:	4611      	mov	r1, r2
 8000cce:	2200      	movs	r2, #0
 8000cd0:	4684      	mov	ip, r0
 8000cd2:	4d07      	ldr	r5, [pc, #28]	@ (8000cf0 <_write_r+0x28>)
 8000cd4:	4620      	mov	r0, r4
 8000cd6:	602a      	str	r2, [r5, #0]
 8000cd8:	461a      	mov	r2, r3
 8000cda:	4664      	mov	r4, ip
 8000cdc:	f000 f958 	bl	8000f90 <_write>
 8000ce0:	1c43      	adds	r3, r0, #1
 8000ce2:	d000      	beq.n	8000ce6 <_write_r+0x1e>
 8000ce4:	bd38      	pop	{r3, r4, r5, pc}
 8000ce6:	682b      	ldr	r3, [r5, #0]
 8000ce8:	2b00      	cmp	r3, #0
 8000cea:	d0fb      	beq.n	8000ce4 <_write_r+0x1c>
 8000cec:	6023      	str	r3, [r4, #0]
 8000cee:	bd38      	pop	{r3, r4, r5, pc}
 8000cf0:	2000008c 	andcs	r0, r0, ip, lsl #1

08000cf4 <_close_r>:
 8000cf4:	2200      	movs	r2, #0
 8000cf6:	b538      	push	{r3, r4, r5, lr}
 8000cf8:	4d06      	ldr	r5, [pc, #24]	@ (8000d14 <_close_r+0x20>)
 8000cfa:	4604      	mov	r4, r0
 8000cfc:	4608      	mov	r0, r1
 8000cfe:	602a      	str	r2, [r5, #0]
 8000d00:	f000 f860 	bl	8000dc4 <_close>
 8000d04:	1c43      	adds	r3, r0, #1
 8000d06:	d000      	beq.n	8000d0a <_close_r+0x16>
 8000d08:	bd38      	pop	{r3, r4, r5, pc}
 8000d0a:	682b      	ldr	r3, [r5, #0]
 8000d0c:	2b00      	cmp	r3, #0
 8000d0e:	d0fb      	beq.n	8000d08 <_close_r+0x14>
 8000d10:	6023      	str	r3, [r4, #0]
 8000d12:	bd38      	pop	{r3, r4, r5, pc}
 8000d14:	2000008c 	andcs	r0, r0, ip, lsl #1

08000d18 <_fstat_r>:
 8000d18:	b570      	push	{r4, r5, r6, lr}
 8000d1a:	2600      	movs	r6, #0
 8000d1c:	4d07      	ldr	r5, [pc, #28]	@ (8000d3c <_fstat_r+0x24>)
 8000d1e:	4604      	mov	r4, r0
 8000d20:	4608      	mov	r0, r1
 8000d22:	4611      	mov	r1, r2
 8000d24:	602e      	str	r6, [r5, #0]
 8000d26:	f000 f855 	bl	8000dd4 <_fstat>
 8000d2a:	1c43      	adds	r3, r0, #1
 8000d2c:	d000      	beq.n	8000d30 <_fstat_r+0x18>
 8000d2e:	bd70      	pop	{r4, r5, r6, pc}
 8000d30:	682b      	ldr	r3, [r5, #0]
 8000d32:	2b00      	cmp	r3, #0
 8000d34:	d0fb      	beq.n	8000d2e <_fstat_r+0x16>
 8000d36:	6023      	str	r3, [r4, #0]
 8000d38:	bd70      	pop	{r4, r5, r6, pc}
 8000d3a:	bf00      	nop
 8000d3c:	2000008c 	andcs	r0, r0, ip, lsl #1

08000d40 <_isatty_r>:
 8000d40:	2200      	movs	r2, #0
 8000d42:	b538      	push	{r3, r4, r5, lr}
 8000d44:	4d06      	ldr	r5, [pc, #24]	@ (8000d60 <_isatty_r+0x20>)
 8000d46:	4604      	mov	r4, r0
 8000d48:	4608      	mov	r0, r1
 8000d4a:	602a      	str	r2, [r5, #0]
 8000d4c:	f000 f84a 	bl	8000de4 <_isatty>
 8000d50:	1c43      	adds	r3, r0, #1
 8000d52:	d000      	beq.n	8000d56 <_isatty_r+0x16>
 8000d54:	bd38      	pop	{r3, r4, r5, pc}
 8000d56:	682b      	ldr	r3, [r5, #0]
 8000d58:	2b00      	cmp	r3, #0
 8000d5a:	d0fb      	beq.n	8000d54 <_isatty_r+0x14>
 8000d5c:	6023      	str	r3, [r4, #0]
 8000d5e:	bd38      	pop	{r3, r4, r5, pc}
 8000d60:	2000008c 	andcs	r0, r0, ip, lsl #1

08000d64 <_lseek_r>:
 8000d64:	b538      	push	{r3, r4, r5, lr}
 8000d66:	460c      	mov	r4, r1
 8000d68:	4611      	mov	r1, r2
 8000d6a:	2200      	movs	r2, #0
 8000d6c:	4684      	mov	ip, r0
 8000d6e:	4d07      	ldr	r5, [pc, #28]	@ (8000d8c <_lseek_r+0x28>)
 8000d70:	4620      	mov	r0, r4
 8000d72:	602a      	str	r2, [r5, #0]
 8000d74:	461a      	mov	r2, r3
 8000d76:	4664      	mov	r4, ip
 8000d78:	f000 f83c 	bl	8000df4 <_lseek>
 8000d7c:	1c43      	adds	r3, r0, #1
 8000d7e:	d000      	beq.n	8000d82 <_lseek_r+0x1e>
 8000d80:	bd38      	pop	{r3, r4, r5, pc}
 8000d82:	682b      	ldr	r3, [r5, #0]
 8000d84:	2b00      	cmp	r3, #0
 8000d86:	d0fb      	beq.n	8000d80 <_lseek_r+0x1c>
 8000d88:	6023      	str	r3, [r4, #0]
 8000d8a:	bd38      	pop	{r3, r4, r5, pc}
 8000d8c:	2000008c 	andcs	r0, r0, ip, lsl #1

08000d90 <__malloc_lock>:
 8000d90:	4770      	bx	lr
 8000d92:	bf00      	nop

08000d94 <__malloc_unlock>:
 8000d94:	4770      	bx	lr
 8000d96:	bf00      	nop

08000d98 <_read_r>:
 8000d98:	b538      	push	{r3, r4, r5, lr}
 8000d9a:	460c      	mov	r4, r1
 8000d9c:	4611      	mov	r1, r2
 8000d9e:	2200      	movs	r2, #0
 8000da0:	4684      	mov	ip, r0
 8000da2:	4d07      	ldr	r5, [pc, #28]	@ (8000dc0 <_read_r+0x28>)
 8000da4:	4620      	mov	r0, r4
 8000da6:	602a      	str	r2, [r5, #0]
 8000da8:	461a      	mov	r2, r3
 8000daa:	4664      	mov	r4, ip
 8000dac:	f000 f82a 	bl	8000e04 <_read>
 8000db0:	1c43      	adds	r3, r0, #1
 8000db2:	d000      	beq.n	8000db6 <_read_r+0x1e>
 8000db4:	bd38      	pop	{r3, r4, r5, pc}
 8000db6:	682b      	ldr	r3, [r5, #0]
 8000db8:	2b00      	cmp	r3, #0
 8000dba:	d0fb      	beq.n	8000db4 <_read_r+0x1c>
 8000dbc:	6023      	str	r3, [r4, #0]
 8000dbe:	bd38      	pop	{r3, r4, r5, pc}
 8000dc0:	2000008c 	andcs	r0, r0, ip, lsl #1

08000dc4 <_close>:
 8000dc4:	2258      	movs	r2, #88	@ 0x58
 8000dc6:	4b02      	ldr	r3, [pc, #8]	@ (8000dd0 <_close+0xc>)
 8000dc8:	f04f 30ff 	mov.w	r0, #4294967295	@ 0xffffffff
 8000dcc:	601a      	str	r2, [r3, #0]
 8000dce:	4770      	bx	lr
 8000dd0:	2000008c 	andcs	r0, r0, ip, lsl #1

08000dd4 <_fstat>:
 8000dd4:	2258      	movs	r2, #88	@ 0x58
 8000dd6:	4b02      	ldr	r3, [pc, #8]	@ (8000de0 <_fstat+0xc>)
 8000dd8:	f04f 30ff 	mov.w	r0, #4294967295	@ 0xffffffff
 8000ddc:	601a      	str	r2, [r3, #0]
 8000dde:	4770      	bx	lr
 8000de0:	2000008c 	andcs	r0, r0, ip, lsl #1

08000de4 <_isatty>:
 8000de4:	2258      	movs	r2, #88	@ 0x58
 8000de6:	4b02      	ldr	r3, [pc, #8]	@ (8000df0 <_isatty+0xc>)
 8000de8:	2000      	movs	r0, #0
 8000dea:	601a      	str	r2, [r3, #0]
 8000dec:	4770      	bx	lr
 8000dee:	bf00      	nop
 8000df0:	2000008c 	andcs	r0, r0, ip, lsl #1

08000df4 <_lseek>:
 8000df4:	2258      	movs	r2, #88	@ 0x58
 8000df6:	4b02      	ldr	r3, [pc, #8]	@ (8000e00 <_lseek+0xc>)
 8000df8:	f04f 30ff 	mov.w	r0, #4294967295	@ 0xffffffff
 8000dfc:	601a      	str	r2, [r3, #0]
 8000dfe:	4770      	bx	lr
 8000e00:	2000008c 	andcs	r0, r0, ip, lsl #1

08000e04 <_read>:
 8000e04:	2258      	movs	r2, #88	@ 0x58
 8000e06:	4b02      	ldr	r3, [pc, #8]	@ (8000e10 <_read+0xc>)
 8000e08:	f04f 30ff 	mov.w	r0, #4294967295	@ 0xffffffff
 8000e0c:	601a      	str	r2, [r3, #0]
 8000e0e:	4770      	bx	lr
 8000e10:	2000008c 	andcs	r0, r0, ip, lsl #1

08000e14 <_sbrk>:
 8000e14:	4a04      	ldr	r2, [pc, #16]	@ (8000e28 <_sbrk+0x14>)
 8000e16:	4905      	ldr	r1, [pc, #20]	@ (8000e2c <_sbrk+0x18>)
 8000e18:	6813      	ldr	r3, [r2, #0]
 8000e1a:	2b00      	cmp	r3, #0
 8000e1c:	bf08      	it	eq
 8000e1e:	460b      	moveq	r3, r1
 8000e20:	4418      	add	r0, r3
 8000e22:	6010      	str	r0, [r2, #0]
 8000e24:	4618      	mov	r0, r3
 8000e26:	4770      	bx	lr
 8000e28:	20000090 	mulcs	r0, r0, r0
 8000e2c:	200000a0 	andcs	r0, r0, r0, lsr #1

08000e30 <main>:
 8000e30:	b508      	push	{r3, lr}
 8000e32:	f000 f8e3 	bl	8000ffc <system_init>
 8000e36:	f44f 30e1 	mov.w	r0, #115200	@ 0x1c200
 8000e3a:	f000 f869 	bl	8000f10 <log_init>
 8000e3e:	f000 fae9 	bl	8001414 <led_init>
 8000e42:	4807      	ldr	r0, [pc, #28]	@ (8000e60 <main+0x30>)
 8000e44:	f7ff fa7c 	bl	8000340 <puts>
 8000e48:	f44f 70fa 	mov.w	r0, #500	@ 0x1f4
 8000e4c:	f000 f8be 	bl	8000fcc <delay_ms>
 8000e50:	2000      	movs	r0, #0
 8000e52:	f000 faeb 	bl	800142c <led_toggle>
 8000e56:	4803      	ldr	r0, [pc, #12]	@ (8000e64 <main+0x34>)
 8000e58:	f7ff fa72 	bl	8000340 <puts>
 8000e5c:	e7f4      	b.n	8000e48 <main+0x18>
 8000e5e:	bf00      	nop
 8000e60:	080014d0 	stmdaeq	r0, {r4, r6, r7, sl, ip}
 8000e64:	080014e0 	stmdaeq	r0, {r5, r6, r7, sl, ip}

08000e68 <delay_internal>:
 8000e68:	b410      	push	{r4}
 8000e6a:	fb01 f000 	mul.w	r0, r1, r0
 8000e6e:	f04f 23e0 	mov.w	r3, #3758153728	@ 0xe000e000
 8000e72:	699a      	ldr	r2, [r3, #24]
 8000e74:	695c      	ldr	r4, [r3, #20]
 8000e76:	2100      	movs	r1, #0
 8000e78:	4281      	cmp	r1, r0
 8000e7a:	d20e      	bcs.n	8000e9a <delay_internal+0x32>
 8000e7c:	f04f 23e0 	mov.w	r3, #3758153728	@ 0xe000e000
 8000e80:	699b      	ldr	r3, [r3, #24]
 8000e82:	429a      	cmp	r2, r3
 8000e84:	d0f8      	beq.n	8000e78 <delay_internal+0x10>
 8000e86:	d903      	bls.n	8000e90 <delay_internal+0x28>
 8000e88:	1ad2      	subs	r2, r2, r3
 8000e8a:	4411      	add	r1, r2
 8000e8c:	461a      	mov	r2, r3
 8000e8e:	e7f3      	b.n	8000e78 <delay_internal+0x10>
 8000e90:	eba4 0c03 	sub.w	ip, r4, r3
 8000e94:	4462      	add	r2, ip
 8000e96:	4411      	add	r1, r2
 8000e98:	e7f8      	b.n	8000e8c <delay_internal+0x24>
 8000e9a:	bc10      	pop	{r4}
 8000e9c:	4770      	bx	lr
	...

08000ea0 <systick_init>:
 8000ea0:	b508      	push	{r3, lr}
 8000ea2:	4b15      	ldr	r3, [pc, #84]	@ (8000ef8 <systick_init+0x58>)
 8000ea4:	681b      	ldr	r3, [r3, #0]
 8000ea6:	4a15      	ldr	r2, [pc, #84]	@ (8000efc <systick_init+0x5c>)
 8000ea8:	fba2 2303 	umull	r2, r3, r2, r3
 8000eac:	099b      	lsrs	r3, r3, #6
 8000eae:	3b01      	subs	r3, #1
 8000eb0:	f1b3 7f80 	cmp.w	r3, #16777216	@ 0x1000000
 8000eb4:	d20a      	bcs.n	8000ecc <systick_init+0x2c>
 8000eb6:	f04f 22e0 	mov.w	r2, #3758153728	@ 0xe000e000
 8000eba:	6153      	str	r3, [r2, #20]
 8000ebc:	4b10      	ldr	r3, [pc, #64]	@ (8000f00 <systick_init+0x60>)
 8000ebe:	21f0      	movs	r1, #240	@ 0xf0
 8000ec0:	f883 1023 	strb.w	r1, [r3, #35]	@ 0x23
 8000ec4:	2300      	movs	r3, #0
 8000ec6:	6193      	str	r3, [r2, #24]
 8000ec8:	2307      	movs	r3, #7
 8000eca:	6113      	str	r3, [r2, #16]
 8000ecc:	2000      	movs	r0, #0
 8000ece:	f000 fa51 	bl	8001374 <SysTick_ConfigCLKSource>
 8000ed2:	4b09      	ldr	r3, [pc, #36]	@ (8000ef8 <systick_init+0x58>)
 8000ed4:	681b      	ldr	r3, [r3, #0]
 8000ed6:	08d9      	lsrs	r1, r3, #3
 8000ed8:	4a0a      	ldr	r2, [pc, #40]	@ (8000f04 <systick_init+0x64>)
 8000eda:	6011      	str	r1, [r2, #0]
 8000edc:	4a07      	ldr	r2, [pc, #28]	@ (8000efc <systick_init+0x5c>)
 8000ede:	fba2 1303 	umull	r1, r3, r2, r3
 8000ee2:	f3c3 234f 	ubfx	r3, r3, #9, #16
 8000ee6:	4908      	ldr	r1, [pc, #32]	@ (8000f08 <systick_init+0x68>)
 8000ee8:	800b      	strh	r3, [r1, #0]
 8000eea:	fba2 2303 	umull	r2, r3, r2, r3
 8000eee:	099b      	lsrs	r3, r3, #6
 8000ef0:	4a06      	ldr	r2, [pc, #24]	@ (8000f0c <systick_init+0x6c>)
 8000ef2:	7013      	strb	r3, [r2, #0]
 8000ef4:	bd08      	pop	{r3, pc}
 8000ef6:	bf00      	nop
 8000ef8:	20000064 	andcs	r0, r0, r4, rrx
 8000efc:	10624dd3 	ldrdne	r4, [r2], #-211	@ 0xffffff2d	@ <UNPREDICTABLE>
 8000f00:	e000ed00 	and	lr, r0, r0, lsl #26
 8000f04:	20000094 	mulcs	r0, r4, r0
 8000f08:	20000098 	mulcs	r0, r8, r0
 8000f0c:	2000009a 	mulcs	r0, sl, r0

08000f10 <log_init>:
 8000f10:	b530      	push	{r4, r5, lr}
 8000f12:	b087      	sub	sp, #28
 8000f14:	4604      	mov	r4, r0
 8000f16:	2004      	movs	r0, #4
 8000f18:	f000 f968 	bl	80011ec <RCM_EnableAPB2PeriphClock>
 8000f1c:	f44f 4080 	mov.w	r0, #16384	@ 0x4000
 8000f20:	f000 f964 	bl	80011ec <RCM_EnableAPB2PeriphClock>
 8000f24:	2388      	movs	r3, #136	@ 0x88
 8000f26:	f88d 3017 	strb.w	r3, [sp, #23]
 8000f2a:	f44f 7300 	mov.w	r3, #512	@ 0x200
 8000f2e:	f8ad 3014 	strh.w	r3, [sp, #20]
 8000f32:	2303      	movs	r3, #3
 8000f34:	f88d 3016 	strb.w	r3, [sp, #22]
 8000f38:	4d13      	ldr	r5, [pc, #76]	@ (8000f88 <log_init+0x78>)
 8000f3a:	a905      	add	r1, sp, #20
 8000f3c:	4628      	mov	r0, r5
 8000f3e:	f000 f95d 	bl	80011fc <GPIO_Config>
 8000f42:	2304      	movs	r3, #4
 8000f44:	f88d 3017 	strb.w	r3, [sp, #23]
 8000f48:	f44f 6380 	mov.w	r3, #1024	@ 0x400
 8000f4c:	f8ad 3014 	strh.w	r3, [sp, #20]
 8000f50:	a905      	add	r1, sp, #20
 8000f52:	4628      	mov	r0, r5
 8000f54:	f000 f952 	bl	80011fc <GPIO_Config>
 8000f58:	9401      	str	r4, [sp, #4]
 8000f5a:	2300      	movs	r3, #0
 8000f5c:	f8ad 3008 	strh.w	r3, [sp, #8]
 8000f60:	f8ad 300a 	strh.w	r3, [sp, #10]
 8000f64:	f8ad 300c 	strh.w	r3, [sp, #12]
 8000f68:	220c      	movs	r2, #12
 8000f6a:	f88d 200e 	strb.w	r2, [sp, #14]
 8000f6e:	f8ad 3010 	strh.w	r3, [sp, #16]
 8000f72:	4c06      	ldr	r4, [pc, #24]	@ (8000f8c <log_init+0x7c>)
 8000f74:	a901      	add	r1, sp, #4
 8000f76:	4620      	mov	r0, r4
 8000f78:	f000 f994 	bl	80012a4 <USART_Config>
 8000f7c:	4620      	mov	r0, r4
 8000f7e:	f000 f9df 	bl	8001340 <USART_Enable>
 8000f82:	b007      	add	sp, #28
 8000f84:	bd30      	pop	{r4, r5, pc}
 8000f86:	bf00      	nop
 8000f88:	40010800 	andmi	r0, r1, r0, lsl #16
 8000f8c:	40013800 	andmi	r3, r1, r0, lsl #16

08000f90 <_write>:
 8000f90:	b570      	push	{r4, r5, r6, lr}
 8000f92:	460c      	mov	r4, r1
 8000f94:	4616      	mov	r6, r2
 8000f96:	4613      	mov	r3, r2
 8000f98:	e00b      	b.n	8000fb2 <_write+0x22>
 8000f9a:	2180      	movs	r1, #128	@ 0x80
 8000f9c:	480a      	ldr	r0, [pc, #40]	@ (8000fc8 <_write+0x38>)
 8000f9e:	f000 f9d9 	bl	8001354 <USART_ReadStatusFlag>
 8000fa2:	2800      	cmp	r0, #0
 8000fa4:	d0f9      	beq.n	8000f9a <_write+0xa>
 8000fa6:	f814 1b01 	ldrb.w	r1, [r4], #1
 8000faa:	4807      	ldr	r0, [pc, #28]	@ (8000fc8 <_write+0x38>)
 8000fac:	f000 f9cd 	bl	800134a <USART_TxData>
 8000fb0:	462b      	mov	r3, r5
 8000fb2:	1e5d      	subs	r5, r3, #1
 8000fb4:	2b00      	cmp	r3, #0
 8000fb6:	d1f0      	bne.n	8000f9a <_write+0xa>
 8000fb8:	2140      	movs	r1, #64	@ 0x40
 8000fba:	4803      	ldr	r0, [pc, #12]	@ (8000fc8 <_write+0x38>)
 8000fbc:	f000 f9ca 	bl	8001354 <USART_ReadStatusFlag>
 8000fc0:	2800      	cmp	r0, #0
 8000fc2:	d0f9      	beq.n	8000fb8 <_write+0x28>
 8000fc4:	4630      	mov	r0, r6
 8000fc6:	bd70      	pop	{r4, r5, r6, pc}
 8000fc8:	40013800 	andmi	r3, r1, r0, lsl #16

08000fcc <delay_ms>:
 8000fcc:	b510      	push	{r4, lr}
 8000fce:	4604      	mov	r4, r0
 8000fd0:	e008      	b.n	8000fe4 <delay_ms+0x18>
 8000fd2:	f5a4 747a 	sub.w	r4, r4, #1000	@ 0x3e8
 8000fd6:	b2a4      	uxth	r4, r4
 8000fd8:	4b07      	ldr	r3, [pc, #28]	@ (8000ff8 <delay_ms+0x2c>)
 8000fda:	8819      	ldrh	r1, [r3, #0]
 8000fdc:	f44f 707a 	mov.w	r0, #1000	@ 0x3e8
 8000fe0:	f7ff ff42 	bl	8000e68 <delay_internal>
 8000fe4:	f5b4 7f7a 	cmp.w	r4, #1000	@ 0x3e8
 8000fe8:	d8f3      	bhi.n	8000fd2 <delay_ms+0x6>
 8000fea:	4b03      	ldr	r3, [pc, #12]	@ (8000ff8 <delay_ms+0x2c>)
 8000fec:	8819      	ldrh	r1, [r3, #0]
 8000fee:	4620      	mov	r0, r4
 8000ff0:	f7ff ff3a 	bl	8000e68 <delay_internal>
 8000ff4:	bd10      	pop	{r4, pc}
 8000ff6:	bf00      	nop
 8000ff8:	20000098 	mulcs	r0, r8, r0

08000ffc <system_init>:
 8000ffc:	b508      	push	{r3, lr}
 8000ffe:	f7ff ff4f 	bl	8000ea0 <systick_init>
 8001002:	f44f 60a0 	mov.w	r0, #1280	@ 0x500
 8001006:	f000 f9ab 	bl	8001360 <NVIC_ConfigPriorityGroup>
 800100a:	bd08      	pop	{r3, pc}

0800100c <SystemClock96M>:
 800100c:	b082      	sub	sp, #8
 800100e:	4a29      	ldr	r2, [pc, #164]	@ (80010b4 <SystemClock96M+0xa8>)
 8001010:	6813      	ldr	r3, [r2, #0]
 8001012:	f443 3380 	orr.w	r3, r3, #65536	@ 0x10000
 8001016:	6013      	str	r3, [r2, #0]
 8001018:	2300      	movs	r3, #0
 800101a:	9301      	str	r3, [sp, #4]
 800101c:	e002      	b.n	8001024 <SystemClock96M+0x18>
 800101e:	9b01      	ldr	r3, [sp, #4]
 8001020:	3301      	adds	r3, #1
 8001022:	9301      	str	r3, [sp, #4]
 8001024:	9b01      	ldr	r3, [sp, #4]
 8001026:	f5b3 4fa0 	cmp.w	r3, #20480	@ 0x5000
 800102a:	d204      	bcs.n	8001036 <SystemClock96M+0x2a>
 800102c:	4b21      	ldr	r3, [pc, #132]	@ (80010b4 <SystemClock96M+0xa8>)
 800102e:	681b      	ldr	r3, [r3, #0]
 8001030:	f413 3f00 	tst.w	r3, #131072	@ 0x20000
 8001034:	d0f3      	beq.n	800101e <SystemClock96M+0x12>
 8001036:	4b1f      	ldr	r3, [pc, #124]	@ (80010b4 <SystemClock96M+0xa8>)
 8001038:	681b      	ldr	r3, [r3, #0]
 800103a:	f413 3f00 	tst.w	r3, #131072	@ 0x20000
 800103e:	d036      	beq.n	80010ae <SystemClock96M+0xa2>
 8001040:	4b1d      	ldr	r3, [pc, #116]	@ (80010b8 <SystemClock96M+0xac>)
 8001042:	681a      	ldr	r2, [r3, #0]
 8001044:	f042 0210 	orr.w	r2, r2, #16
 8001048:	601a      	str	r2, [r3, #0]
 800104a:	681a      	ldr	r2, [r3, #0]
 800104c:	2103      	movs	r1, #3
 800104e:	f361 0202 	bfi	r2, r1, #0, #3
 8001052:	601a      	str	r2, [r3, #0]
 8001054:	f5a3 5380 	sub.w	r3, r3, #4096	@ 0x1000
 8001058:	685a      	ldr	r2, [r3, #4]
 800105a:	f36f 1207 	bfc	r2, #4, #4
 800105e:	605a      	str	r2, [r3, #4]
 8001060:	685a      	ldr	r2, [r3, #4]
 8001062:	f36f 22cd 	bfc	r2, #11, #3
 8001066:	605a      	str	r2, [r3, #4]
 8001068:	685a      	ldr	r2, [r3, #4]
 800106a:	2104      	movs	r1, #4
 800106c:	f361 220a 	bfi	r2, r1, #8, #3
 8001070:	605a      	str	r2, [r3, #4]
 8001072:	685a      	ldr	r2, [r3, #4]
 8001074:	f442 3280 	orr.w	r2, r2, #65536	@ 0x10000
 8001078:	605a      	str	r2, [r3, #4]
 800107a:	685a      	ldr	r2, [r3, #4]
 800107c:	210a      	movs	r1, #10
 800107e:	f361 4295 	bfi	r2, r1, #18, #4
 8001082:	605a      	str	r2, [r3, #4]
 8001084:	681a      	ldr	r2, [r3, #0]
 8001086:	f042 7280 	orr.w	r2, r2, #16777216	@ 0x1000000
 800108a:	601a      	str	r2, [r3, #0]
 800108c:	4b09      	ldr	r3, [pc, #36]	@ (80010b4 <SystemClock96M+0xa8>)
 800108e:	681b      	ldr	r3, [r3, #0]
 8001090:	f013 7f00 	tst.w	r3, #33554432	@ 0x2000000
 8001094:	d0fa      	beq.n	800108c <SystemClock96M+0x80>
 8001096:	4b07      	ldr	r3, [pc, #28]	@ (80010b4 <SystemClock96M+0xa8>)
 8001098:	685a      	ldr	r2, [r3, #4]
 800109a:	2102      	movs	r1, #2
 800109c:	f361 0201 	bfi	r2, r1, #0, #2
 80010a0:	605a      	str	r2, [r3, #4]
 80010a2:	4b04      	ldr	r3, [pc, #16]	@ (80010b4 <SystemClock96M+0xa8>)
 80010a4:	685b      	ldr	r3, [r3, #4]
 80010a6:	f3c3 0381 	ubfx	r3, r3, #2, #2
 80010aa:	2b02      	cmp	r3, #2
 80010ac:	d1f9      	bne.n	80010a2 <SystemClock96M+0x96>
 80010ae:	b002      	add	sp, #8
 80010b0:	4770      	bx	lr
 80010b2:	bf00      	nop
 80010b4:	40021000 	andmi	r1, r2, r0
 80010b8:	40022000 	andmi	r2, r2, r0

080010bc <SystemClockConfig>:
 80010bc:	b508      	push	{r3, lr}
 80010be:	f7ff ffa5 	bl	800100c <SystemClock96M>
 80010c2:	bd08      	pop	{r3, pc}

080010c4 <SystemInit>:
 80010c4:	b508      	push	{r3, lr}
 80010c6:	4b10      	ldr	r3, [pc, #64]	@ (8001108 <SystemInit+0x44>)
 80010c8:	681a      	ldr	r2, [r3, #0]
 80010ca:	f042 0201 	orr.w	r2, r2, #1
 80010ce:	601a      	str	r2, [r3, #0]
 80010d0:	6859      	ldr	r1, [r3, #4]
 80010d2:	4a0e      	ldr	r2, [pc, #56]	@ (800110c <SystemInit+0x48>)
 80010d4:	400a      	ands	r2, r1
 80010d6:	605a      	str	r2, [r3, #4]
 80010d8:	681a      	ldr	r2, [r3, #0]
 80010da:	f022 7284 	bic.w	r2, r2, #17301504	@ 0x1080000
 80010de:	f422 3280 	bic.w	r2, r2, #65536	@ 0x10000
 80010e2:	601a      	str	r2, [r3, #0]
 80010e4:	681a      	ldr	r2, [r3, #0]
 80010e6:	f36f 4292 	bfc	r2, #18, #1
 80010ea:	601a      	str	r2, [r3, #0]
 80010ec:	685a      	ldr	r2, [r3, #4]
 80010ee:	f422 02fe 	bic.w	r2, r2, #8323072	@ 0x7f0000
 80010f2:	605a      	str	r2, [r3, #4]
 80010f4:	f44f 021f 	mov.w	r2, #10420224	@ 0x9f0000
 80010f8:	609a      	str	r2, [r3, #8]
 80010fa:	f7ff ffdf 	bl	80010bc <SystemClockConfig>
 80010fe:	4b04      	ldr	r3, [pc, #16]	@ (8001110 <SystemInit+0x4c>)
 8001100:	f04f 6200 	mov.w	r2, #134217728	@ 0x8000000
 8001104:	609a      	str	r2, [r3, #8]
 8001106:	bd08      	pop	{r3, pc}
 8001108:	40021000 	andmi	r1, r2, r0
 800110c:	f8ff0000 			@ <UNDEFINED> instruction: 0xf8ff0000
 8001110:	e000ed00 	and	lr, r0, r0, lsl #26

08001114 <RCM_ReadSYSCLKFreq>:
 8001114:	4b10      	ldr	r3, [pc, #64]	@ (8001158 <RCM_ReadSYSCLKFreq+0x44>)
 8001116:	685b      	ldr	r3, [r3, #4]
 8001118:	f003 0303 	and.w	r3, r3, #3
 800111c:	2b02      	cmp	r3, #2
 800111e:	d001      	beq.n	8001124 <RCM_ReadSYSCLKFreq+0x10>
 8001120:	480e      	ldr	r0, [pc, #56]	@ (800115c <RCM_ReadSYSCLKFreq+0x48>)
 8001122:	4770      	bx	lr
 8001124:	4b0c      	ldr	r3, [pc, #48]	@ (8001158 <RCM_ReadSYSCLKFreq+0x44>)
 8001126:	6858      	ldr	r0, [r3, #4]
 8001128:	f3c0 4083 	ubfx	r0, r0, #18, #4
 800112c:	3002      	adds	r0, #2
 800112e:	685b      	ldr	r3, [r3, #4]
 8001130:	f3c3 4200 	ubfx	r2, r3, #16, #1
 8001134:	f413 3f80 	tst.w	r3, #65536	@ 0x10000
 8001138:	d103      	bne.n	8001142 <RCM_ReadSYSCLKFreq+0x2e>
 800113a:	4b09      	ldr	r3, [pc, #36]	@ (8001160 <RCM_ReadSYSCLKFreq+0x4c>)
 800113c:	fb03 f000 	mul.w	r0, r3, r0
 8001140:	4770      	bx	lr
 8001142:	4b06      	ldr	r3, [pc, #24]	@ (800115c <RCM_ReadSYSCLKFreq+0x48>)
 8001144:	fb03 f000 	mul.w	r0, r3, r0
 8001148:	4b03      	ldr	r3, [pc, #12]	@ (8001158 <RCM_ReadSYSCLKFreq+0x44>)
 800114a:	685b      	ldr	r3, [r3, #4]
 800114c:	f3c3 4340 	ubfx	r3, r3, #17, #1
 8001150:	429a      	cmp	r2, r3
 8001152:	d1e6      	bne.n	8001122 <RCM_ReadSYSCLKFreq+0xe>
 8001154:	0840      	lsrs	r0, r0, #1
 8001156:	4770      	bx	lr
 8001158:	40021000 	andmi	r1, r2, r0
 800115c:	007a1200 	rsbseq	r1, sl, r0, lsl #4
 8001160:	003d0900 	eorseq	r0, sp, r0, lsl #18

08001164 <RCM_ReadHCLKFreq>:
 8001164:	b500      	push	{lr}
 8001166:	b085      	sub	sp, #20
 8001168:	4b09      	ldr	r3, [pc, #36]	@ (8001190 <RCM_ReadHCLKFreq+0x2c>)
 800116a:	cb0f      	ldmia	r3, {r0, r1, r2, r3}
 800116c:	f10d 0c10 	add.w	ip, sp, #16
 8001170:	e90c 000f 	stmdb	ip, {r0, r1, r2, r3}
 8001174:	f7ff ffce 	bl	8001114 <RCM_ReadSYSCLKFreq>
 8001178:	4b06      	ldr	r3, [pc, #24]	@ (8001194 <RCM_ReadHCLKFreq+0x30>)
 800117a:	685b      	ldr	r3, [r3, #4]
 800117c:	f3c3 1303 	ubfx	r3, r3, #4, #4
 8001180:	3310      	adds	r3, #16
 8001182:	446b      	add	r3, sp
 8001184:	f813 3c10 	ldrb.w	r3, [r3, #-16]
 8001188:	40d8      	lsrs	r0, r3
 800118a:	b005      	add	sp, #20
 800118c:	f85d fb04 	ldr.w	pc, [sp], #4
 8001190:	08001454 	stmdaeq	r0, {r2, r4, r6, sl, ip}
 8001194:	40021000 	andmi	r1, r2, r0

08001198 <RCM_ReadPCLKFreq>:
 8001198:	b530      	push	{r4, r5, lr}
 800119a:	b083      	sub	sp, #12
 800119c:	4605      	mov	r5, r0
 800119e:	460c      	mov	r4, r1
 80011a0:	4b10      	ldr	r3, [pc, #64]	@ (80011e4 <RCM_ReadPCLKFreq+0x4c>)
 80011a2:	e893 0003 	ldmia.w	r3, {r0, r1}
 80011a6:	ab02      	add	r3, sp, #8
 80011a8:	e903 0003 	stmdb	r3, {r0, r1}
 80011ac:	f7ff ffda 	bl	8001164 <RCM_ReadHCLKFreq>
 80011b0:	b155      	cbz	r5, 80011c8 <RCM_ReadPCLKFreq+0x30>
 80011b2:	4b0d      	ldr	r3, [pc, #52]	@ (80011e8 <RCM_ReadPCLKFreq+0x50>)
 80011b4:	685b      	ldr	r3, [r3, #4]
 80011b6:	f3c3 2302 	ubfx	r3, r3, #8, #3
 80011ba:	3308      	adds	r3, #8
 80011bc:	446b      	add	r3, sp
 80011be:	f813 3c08 	ldrb.w	r3, [r3, #-8]
 80011c2:	fa20 f303 	lsr.w	r3, r0, r3
 80011c6:	602b      	str	r3, [r5, #0]
 80011c8:	b14c      	cbz	r4, 80011de <RCM_ReadPCLKFreq+0x46>
 80011ca:	4b07      	ldr	r3, [pc, #28]	@ (80011e8 <RCM_ReadPCLKFreq+0x50>)
 80011cc:	685b      	ldr	r3, [r3, #4]
 80011ce:	f3c3 23c2 	ubfx	r3, r3, #11, #3
 80011d2:	3308      	adds	r3, #8
 80011d4:	446b      	add	r3, sp
 80011d6:	f813 3c08 	ldrb.w	r3, [r3, #-8]
 80011da:	40d8      	lsrs	r0, r3
 80011dc:	6020      	str	r0, [r4, #0]
 80011de:	b003      	add	sp, #12
 80011e0:	bd30      	pop	{r4, r5, pc}
 80011e2:	bf00      	nop
 80011e4:	08001464 	stmdaeq	r0, {r2, r5, r6, sl, ip}
 80011e8:	40021000 	andmi	r1, r2, r0

080011ec <RCM_EnableAPB2PeriphClock>:
 80011ec:	4a02      	ldr	r2, [pc, #8]	@ (80011f8 <RCM_EnableAPB2PeriphClock+0xc>)
 80011ee:	6993      	ldr	r3, [r2, #24]
 80011f0:	4303      	orrs	r3, r0
 80011f2:	6193      	str	r3, [r2, #24]
 80011f4:	4770      	bx	lr
 80011f6:	bf00      	nop
 80011f8:	40021000 	andmi	r1, r2, r0

080011fc <GPIO_Config>:
 80011fc:	b530      	push	{r4, r5, lr}
 80011fe:	78cb      	ldrb	r3, [r1, #3]
 8001200:	f003 020f 	and.w	r2, r3, #15
 8001204:	4694      	mov	ip, r2
 8001206:	f013 0f80 	tst.w	r3, #128	@ 0x80
 800120a:	d105      	bne.n	8001218 <GPIO_Config+0x1c>
 800120c:	780b      	ldrb	r3, [r1, #0]
 800120e:	b31b      	cbz	r3, 8001258 <GPIO_Config+0x5c>
 8001210:	6805      	ldr	r5, [r0, #0]
 8001212:	2201      	movs	r2, #1
 8001214:	2300      	movs	r3, #0
 8001216:	e008      	b.n	800122a <GPIO_Config+0x2e>
 8001218:	f891 c002 	ldrb.w	ip, [r1, #2]
 800121c:	ea4c 0c02 	orr.w	ip, ip, r2
 8001220:	e7f4      	b.n	800120c <GPIO_Config+0x10>
 8001222:	6142      	str	r2, [r0, #20]
 8001224:	3301      	adds	r3, #1
 8001226:	b2db      	uxtb	r3, r3
 8001228:	0052      	lsls	r2, r2, #1
 800122a:	2b07      	cmp	r3, #7
 800122c:	d813      	bhi.n	8001256 <GPIO_Config+0x5a>
 800122e:	880c      	ldrh	r4, [r1, #0]
 8001230:	4214      	tst	r4, r2
 8001232:	d0f7      	beq.n	8001224 <GPIO_Config+0x28>
 8001234:	009c      	lsls	r4, r3, #2
 8001236:	f04f 0e0f 	mov.w	lr, #15
 800123a:	fa0e fe04 	lsl.w	lr, lr, r4
 800123e:	ea25 050e 	bic.w	r5, r5, lr
 8001242:	fa0c f404 	lsl.w	r4, ip, r4
 8001246:	4325      	orrs	r5, r4
 8001248:	78cc      	ldrb	r4, [r1, #3]
 800124a:	2c28      	cmp	r4, #40	@ 0x28
 800124c:	d0e9      	beq.n	8001222 <GPIO_Config+0x26>
 800124e:	2c48      	cmp	r4, #72	@ 0x48
 8001250:	d1e8      	bne.n	8001224 <GPIO_Config+0x28>
 8001252:	6102      	str	r2, [r0, #16]
 8001254:	e7e6      	b.n	8001224 <GPIO_Config+0x28>
 8001256:	6005      	str	r5, [r0, #0]
 8001258:	880b      	ldrh	r3, [r1, #0]
 800125a:	2bff      	cmp	r3, #255	@ 0xff
 800125c:	d921      	bls.n	80012a2 <GPIO_Config+0xa6>
 800125e:	6845      	ldr	r5, [r0, #4]
 8001260:	f44f 7480 	mov.w	r4, #256	@ 0x100
 8001264:	2308      	movs	r3, #8
 8001266:	e003      	b.n	8001270 <GPIO_Config+0x74>
 8001268:	6144      	str	r4, [r0, #20]
 800126a:	3301      	adds	r3, #1
 800126c:	b2db      	uxtb	r3, r3
 800126e:	0064      	lsls	r4, r4, #1
 8001270:	2b0f      	cmp	r3, #15
 8001272:	d815      	bhi.n	80012a0 <GPIO_Config+0xa4>
 8001274:	880a      	ldrh	r2, [r1, #0]
 8001276:	4222      	tst	r2, r4
 8001278:	d0f7      	beq.n	800126a <GPIO_Config+0x6e>
 800127a:	f1a3 0208 	sub.w	r2, r3, #8
 800127e:	0092      	lsls	r2, r2, #2
 8001280:	f04f 0e0f 	mov.w	lr, #15
 8001284:	fa0e fe02 	lsl.w	lr, lr, r2
 8001288:	ea25 050e 	bic.w	r5, r5, lr
 800128c:	fa0c f202 	lsl.w	r2, ip, r2
 8001290:	4315      	orrs	r5, r2
 8001292:	78ca      	ldrb	r2, [r1, #3]
 8001294:	2a28      	cmp	r2, #40	@ 0x28
 8001296:	d0e7      	beq.n	8001268 <GPIO_Config+0x6c>
 8001298:	2a48      	cmp	r2, #72	@ 0x48
 800129a:	d1e6      	bne.n	800126a <GPIO_Config+0x6e>
 800129c:	6104      	str	r4, [r0, #16]
 800129e:	e7e4      	b.n	800126a <GPIO_Config+0x6e>
 80012a0:	6045      	str	r5, [r0, #4]
 80012a2:	bd30      	pop	{r4, r5, pc}

080012a4 <USART_Config>:
 80012a4:	b530      	push	{r4, r5, lr}
 80012a6:	b083      	sub	sp, #12
 80012a8:	4604      	mov	r4, r0
 80012aa:	460d      	mov	r5, r1
 80012ac:	68c2      	ldr	r2, [r0, #12]
 80012ae:	f422 52b0 	bic.w	r2, r2, #5632	@ 0x1600
 80012b2:	f022 020c 	bic.w	r2, r2, #12
 80012b6:	0412      	lsls	r2, r2, #16
 80012b8:	0c12      	lsrs	r2, r2, #16
 80012ba:	7a8b      	ldrb	r3, [r1, #10]
 80012bc:	8909      	ldrh	r1, [r1, #8]
 80012be:	430b      	orrs	r3, r1
 80012c0:	88a9      	ldrh	r1, [r5, #4]
 80012c2:	430b      	orrs	r3, r1
 80012c4:	4313      	orrs	r3, r2
 80012c6:	60c3      	str	r3, [r0, #12]
 80012c8:	6902      	ldr	r2, [r0, #16]
 80012ca:	f422 5240 	bic.w	r2, r2, #12288	@ 0x3000
 80012ce:	0412      	lsls	r2, r2, #16
 80012d0:	0c12      	lsrs	r2, r2, #16
 80012d2:	88eb      	ldrh	r3, [r5, #6]
 80012d4:	4313      	orrs	r3, r2
 80012d6:	6103      	str	r3, [r0, #16]
 80012d8:	6942      	ldr	r2, [r0, #20]
 80012da:	f422 7240 	bic.w	r2, r2, #768	@ 0x300
 80012de:	0412      	lsls	r2, r2, #16
 80012e0:	0c12      	lsrs	r2, r2, #16
 80012e2:	89ab      	ldrh	r3, [r5, #12]
 80012e4:	4313      	orrs	r3, r2
 80012e6:	6143      	str	r3, [r0, #20]
 80012e8:	4b13      	ldr	r3, [pc, #76]	@ (8001338 <USART_Config+0x94>)
 80012ea:	4298      	cmp	r0, r3
 80012ec:	d01e      	beq.n	800132c <USART_Config+0x88>
 80012ee:	2100      	movs	r1, #0
 80012f0:	a801      	add	r0, sp, #4
 80012f2:	f7ff ff51 	bl	8001198 <RCM_ReadPCLKFreq>
 80012f6:	9b01      	ldr	r3, [sp, #4]
 80012f8:	eb03 0383 	add.w	r3, r3, r3, lsl #2
 80012fc:	eb03 0383 	add.w	r3, r3, r3, lsl #2
 8001300:	682a      	ldr	r2, [r5, #0]
 8001302:	0092      	lsls	r2, r2, #2
 8001304:	fbb3 f3f2 	udiv	r3, r3, r2
 8001308:	490c      	ldr	r1, [pc, #48]	@ (800133c <USART_Config+0x98>)
 800130a:	fba1 0203 	umull	r0, r2, r1, r3
 800130e:	0952      	lsrs	r2, r2, #5
 8001310:	2064      	movs	r0, #100	@ 0x64
 8001312:	fb02 3310 	mls	r3, r2, r0, r3
 8001316:	011b      	lsls	r3, r3, #4
 8001318:	3332      	adds	r3, #50	@ 0x32
 800131a:	fba1 1303 	umull	r1, r3, r1, r3
 800131e:	f3c3 1343 	ubfx	r3, r3, #5, #4
 8001322:	ea43 1302 	orr.w	r3, r3, r2, lsl #4
 8001326:	60a3      	str	r3, [r4, #8]
 8001328:	b003      	add	sp, #12
 800132a:	bd30      	pop	{r4, r5, pc}
 800132c:	a901      	add	r1, sp, #4
 800132e:	2000      	movs	r0, #0
 8001330:	f7ff ff32 	bl	8001198 <RCM_ReadPCLKFreq>
 8001334:	e7df      	b.n	80012f6 <USART_Config+0x52>
 8001336:	bf00      	nop
 8001338:	40013800 	andmi	r3, r1, r0, lsl #16
 800133c:	51eb851f 	mvnpl	r8, pc, lsl r5

08001340 <USART_Enable>:
 8001340:	68c3      	ldr	r3, [r0, #12]
 8001342:	f443 5300 	orr.w	r3, r3, #8192	@ 0x2000
 8001346:	60c3      	str	r3, [r0, #12]
 8001348:	4770      	bx	lr

0800134a <USART_TxData>:
 800134a:	6843      	ldr	r3, [r0, #4]
 800134c:	f361 0308 	bfi	r3, r1, #0, #9
 8001350:	6043      	str	r3, [r0, #4]
 8001352:	4770      	bx	lr

08001354 <USART_ReadStatusFlag>:
 8001354:	6803      	ldr	r3, [r0, #0]
 8001356:	4219      	tst	r1, r3
 8001358:	bf14      	ite	ne
 800135a:	2001      	movne	r0, #1
 800135c:	2000      	moveq	r0, #0
 800135e:	4770      	bx	lr

08001360 <NVIC_ConfigPriorityGroup>:
 8001360:	f040 60bf 	orr.w	r0, r0, #100139008	@ 0x5f80000
 8001364:	f440 3000 	orr.w	r0, r0, #131072	@ 0x20000
 8001368:	4b01      	ldr	r3, [pc, #4]	@ (8001370 <NVIC_ConfigPriorityGroup+0x10>)
 800136a:	60d8      	str	r0, [r3, #12]
 800136c:	4770      	bx	lr
 800136e:	bf00      	nop
 8001370:	e000ed00 	and	lr, r0, r0, lsl #26

08001374 <SysTick_ConfigCLKSource>:
 8001374:	2801      	cmp	r0, #1
 8001376:	d006      	beq.n	8001386 <SysTick_ConfigCLKSource+0x12>
 8001378:	f04f 22e0 	mov.w	r2, #3758153728	@ 0xe000e000
 800137c:	6913      	ldr	r3, [r2, #16]
 800137e:	f023 0304 	bic.w	r3, r3, #4
 8001382:	6113      	str	r3, [r2, #16]
 8001384:	4770      	bx	lr
 8001386:	f04f 22e0 	mov.w	r2, #3758153728	@ 0xe000e000
 800138a:	6913      	ldr	r3, [r2, #16]
 800138c:	f043 0304 	orr.w	r3, r3, #4
 8001390:	6113      	str	r3, [r2, #16]
 8001392:	4770      	bx	lr

08001394 <Reset_Handler>:
 8001394:	480c      	ldr	r0, [pc, #48]	@ (80013c8 <L_loop1+0x12>)
 8001396:	490d      	ldr	r1, [pc, #52]	@ (80013cc <L_loop1+0x16>)
 8001398:	4a0d      	ldr	r2, [pc, #52]	@ (80013d0 <L_loop1+0x1a>)
 800139a:	2300      	movs	r3, #0
 800139c:	e002      	b.n	80013a4 <L_loop0_0>

0800139e <L_loop0>:
 800139e:	58d4      	ldr	r4, [r2, r3]
 80013a0:	50c4      	str	r4, [r0, r3]
 80013a2:	3304      	adds	r3, #4

080013a4 <L_loop0_0>:
 80013a4:	18c4      	adds	r4, r0, r3
 80013a6:	428c      	cmp	r4, r1
 80013a8:	d3f9      	bcc.n	800139e <L_loop0>
 80013aa:	4a0a      	ldr	r2, [pc, #40]	@ (80013d4 <L_loop1+0x1e>)
 80013ac:	4c0a      	ldr	r4, [pc, #40]	@ (80013d8 <L_loop1+0x22>)
 80013ae:	2300      	movs	r3, #0
 80013b0:	e001      	b.n	80013b6 <L_loop1>

080013b2 <L_loop2>:
 80013b2:	6013      	str	r3, [r2, #0]
 80013b4:	3204      	adds	r2, #4

080013b6 <L_loop1>:
 80013b6:	42a2      	cmp	r2, r4
 80013b8:	d3fb      	bcc.n	80013b2 <L_loop2>
 80013ba:	f7ff fe83 	bl	80010c4 <SystemInit>
 80013be:	f7fe fee1 	bl	8000184 <__libc_init_array>
 80013c2:	f7ff fd35 	bl	8000e30 <main>
 80013c6:	4770      	bx	lr
 80013c8:	20000000 	andcs	r0, r0, r0
 80013cc:	20000068 	andcs	r0, r0, r8, rrx
 80013d0:	080014f8 	stmdaeq	r0, {r3, r4, r5, r6, r7, sl, ip}
 80013d4:	20000068 	andcs	r0, r0, r8, rrx
 80013d8:	2000009c 	mulcs	r0, ip, r0

080013dc <ADC1_2_IRQHandler>:
 80013dc:	e7fe      	b.n	80013dc <ADC1_2_IRQHandler>
	...

080013e0 <led_init_internal>:
 80013e0:	b530      	push	{r4, r5, lr}
 80013e2:	b083      	sub	sp, #12
 80013e4:	2010      	movs	r0, #16
 80013e6:	f7ff ff01 	bl	80011ec <RCM_EnableAPB2PeriphClock>
 80013ea:	f44f 5500 	mov.w	r5, #8192	@ 0x2000
 80013ee:	f8ad 5004 	strh.w	r5, [sp, #4]
 80013f2:	2380      	movs	r3, #128	@ 0x80
 80013f4:	f88d 3007 	strb.w	r3, [sp, #7]
 80013f8:	2303      	movs	r3, #3
 80013fa:	f88d 3006 	strb.w	r3, [sp, #6]
 80013fe:	4c04      	ldr	r4, [pc, #16]	@ (8001410 <led_init_internal+0x30>)
 8001400:	a901      	add	r1, sp, #4
 8001402:	4620      	mov	r0, r4
 8001404:	f7ff fefa 	bl	80011fc <GPIO_Config>
 8001408:	6165      	str	r5, [r4, #20]
 800140a:	b003      	add	sp, #12
 800140c:	bd30      	pop	{r4, r5, pc}
 800140e:	bf00      	nop
 8001410:	40011000 	andmi	r1, r1, r0

08001414 <led_init>:
 8001414:	b510      	push	{r4, lr}
 8001416:	2301      	movs	r3, #1
 8001418:	1e5c      	subs	r4, r3, #1
 800141a:	b2e4      	uxtb	r4, r4
 800141c:	b903      	cbnz	r3, 8001420 <led_init+0xc>
 800141e:	bd10      	pop	{r4, pc}
 8001420:	4620      	mov	r0, r4
 8001422:	f7ff ffdd 	bl	80013e0 <led_init_internal>
 8001426:	4623      	mov	r3, r4
 8001428:	e7f6      	b.n	8001418 <led_init+0x4>
	...

0800142c <led_toggle>:
 800142c:	4a02      	ldr	r2, [pc, #8]	@ (8001438 <led_toggle+0xc>)
 800142e:	68d3      	ldr	r3, [r2, #12]
 8001430:	f483 5300 	eor.w	r3, r3, #8192	@ 0x2000
 8001434:	60d3      	str	r3, [r2, #12]
 8001436:	4770      	bx	lr
 8001438:	40011000 	andmi	r1, r1, r0

0800143c <_init>:
 800143c:	b5f8      	push	{r3, r4, r5, r6, r7, lr}
 800143e:	bf00      	nop
 8001440:	bcf8      	pop	{r3, r4, r5, r6, r7}
 8001442:	bc08      	pop	{r3}
 8001444:	469e      	mov	lr, r3
 8001446:	4770      	bx	lr

08001448 <_fini>:
 8001448:	b5f8      	push	{r3, r4, r5, r6, r7, lr}
 800144a:	bf00      	nop
 800144c:	bcf8      	pop	{r3, r4, r5, r6, r7}
 800144e:	bc08      	pop	{r3}
 8001450:	469e      	mov	lr, r3
 8001452:	4770      	bx	lr
